MPASM 5.84                         MAINC.ASM   4-11-2020  17:21:04         PAGE  1


LOC  OBJECT CODE     LINE SOURCE TEXT
  VALUE

Warning[205]: Found directive in column 1. (LIST)
                      00001 LIST P = 16F84A
                      00002 #include "p16f84A.inc"
                      00001         LIST
                      00002 
                      00003 ;==========================================================================
                      00004 ; Build date : Mar 17 2019
                      00005 ;  MPASM PIC16F84A processor include
                      00006 ; 
                      00007 ;  (c) Copyright 1999-2019 Microchip Technology, All rights reserved
                      00008 ;==========================================================================
                      00009 
                      00209         LIST
Warning[205]: Found directive in column 1. (__CONFIG)
2007   3FF1           00003 __CONFIG _FOSC_XT & _WDTE_OFF & _PWRTE_ON & _CP_OFF
                      00004 ;*******************************************************************************
                      00005 ; INICIO DEL PROGRAMA
                      00006 ;*******************************************************************************
                      00007     ORG 0X00
0000   2???           00008     GOTO START
                      00009 ;*******************************************************************************
                      00010 ; DEFINICION DE VARIABLES 
                      00011 ;*******************************************************************************
Warning[207]: Found label after column 1. (Unidad)
  0000000C            00012  Unidad equ 0x0C
Warning[207]: Found label after column 1. (Decena)
  0000000D            00013  Decena equ 0x0D
Warning[207]: Found label after column 1. (Centena)
  0000000E            00014  Centena equ 0x0E
                      00015  ; Contadores
Warning[207]: Found label after column 1. (Contador)
  0000000F            00016  Contador equ 0x0F
Warning[207]: Found label after column 1. (Contador1)
  00000010            00017  Contador1 equ 0x10
Warning[207]: Found label after column 1. (Contador2)
  00000011            00018  Contador2 equ 0x11 
                      00019  ; Banderas
Warning[207]: Found label after column 1. (MuestroU)
  00000002            00020  MuestroU equ 2
Warning[207]: Found label after column 1. (MuestroD)
  00000001            00021  MuestroD equ 1
Warning[207]: Found label after column 1. (MuestroC)
  00000000            00022  MuestroC equ 0
                      00023 ;*******************************************************************************
                      00024 ; INICIO DEL PROGRAMA
                      00025 ;*******************************************************************************
                      00026 ; Tabla de conversion BCD a 7 Segmentos
Warning[205]: Found directive in column 1. (ORG)
                      00027 ORG 0X05
0005                  00028 BCD7SEG
0005   0782           00029     addwf PCL, 1
0006   343F 3406 345B 00030     DT 0x3F, 0x06, 0x5B, 0x4F, 0x66, 0x6D, 0x7D, 0x07, 0xFF, 0x6F
       344F 3466 346D 
MPASM 5.84                         MAINC.ASM   4-11-2020  17:21:04         PAGE  2


LOC  OBJECT CODE     LINE SOURCE TEXT
  VALUE

       347D 3407 34FF 
       346F 
0010                  00031 START
0010   1683           00032     BSF STATUS, RP0
Message[302]: Register in operand not in bank 0.  Ensure that bank bits are correct.
0011   0185           00033     CLRF TRISA
Message[302]: Register in operand not in bank 0.  Ensure that bank bits are correct.
0012   0186           00034     CLRF TRISB
0013   1283           00035     BCF STATUS, RP0
0014   0185           00036     CLRF PORTA
0015   018C           00037     CLRF Unidad
0016   018D           00038     CLRF Decena
0017   018E           00039     CLRF Centena
0018   2???           00040     GOTO ActualizarDisplay
                      00041     ;**************************************************************
                      00042     ; CHEQUEO DE PULSADORES
                      00043     ;**************************************************************
Warning[207]: Found label after column 1. (Ciclo)
0019                  00044     Ciclo
0019   0A8C           00045         INCF Unidad, 1
001A   300A           00046         MOVLW d'10'
001B   020C           00047         SUBWF Unidad, 0
001C   1D03           00048         BTFSS STATUS, Z
001D   2???           00049         GOTO ActualizarDisplay
001E   018C           00050         CLRF Unidad
001F   0A8D           00051         INCF Decena, 1
0020   300A           00052         MOVLW d'10'
0021   020D           00053         SUBWF Decena, 0
0022   1D03           00054         BTFSS STATUS, Z
0023   2???           00055         GOTO ActualizarDisplay
0024   018D           00056         CLRF Decena
0025   0A8E           00057         INCF Centena, 1
0026   300A           00058         MOVLW d'10'
0027   020E           00059         SUBWF Centena, 0
0028   1D03           00060         BTFSS STATUS, Z
0029   2???           00061         GOTO ActualizarDisplay
002A   018E           00062         CLRF Centena
                      00063     ; ***********************************************************
                      00064     ; MULTIPLEXO LOS DISPLAY
                      00065     ;************************************************************
Warning[207]: Found label after column 1. (ActualizarDisplay)
002B                  00066     ActualizarDisplay
002B   3014           00067         MOVLW d'20'
002C   008F           00068         MOVWF Contador
                      00069         
Warning[207]: Found label after column 1. (Refrescar)
002D                  00070     Refrescar
002D   080C           00071         MOVFW Unidad
002E   2???           00072         CALL BCD7SEG
002F   1005           00073         BCF PORTA, MuestroC
0030   0086           00074         MOVWF PORTB
0031   1505           00075         BSF PORTA, MuestroU
0032   2???           00076         CALL Esperar_5ms
MPASM 5.84                         MAINC.ASM   4-11-2020  17:21:04         PAGE  3


LOC  OBJECT CODE     LINE SOURCE TEXT
  VALUE

0033   080D           00077         MOVFW Decena
0034   2???           00078         CALL BCD7SEG
0035   1105           00079         BCF PORTA, MuestroU
0036   0086           00080         MOVWF PORTB
0037   1485           00081         BSF PORTA, MuestroD
0038   2???           00082         CALL Esperar_5ms
0039   080E           00083         MOVFW Centena
003A   2???           00084         CALL BCD7SEG
003B   1085           00085         BCF PORTA, MuestroD
003C   0086           00086         MOVWF PORTB
003D   1405           00087         BSF PORTA, MuestroC
003E   2???           00088         CALL Esperar_5ms
003F   0B8F           00089         DECFSZ Contador, 1
0040   2???           00090         GOTO Ciclo
0041   2???           00091         GOTO Refrescar
                      00092     ;***************************************************************
                      00093     ; Function de esperar 5 mS
                      00094     ;***************************************************************
Warning[207]: Found label after column 1. (Esperar_5ms)
0042                  00095     Esperar_5ms
0042   30FF           00096         MOVLW 0xFF
0043   0090           00097         MOVWF Contador1
Warning[207]: Found label after column 1. (Repeticion1)
0044                  00098     Repeticion1
0044   3005           00099         MOVLW 0x05
0045   0091           00100         MOVWF Contador2
Warning[207]: Found label after column 1. (Repeticion2)
0046                  00101     Repeticion2
0046   0B91           00102         DECFSZ Contador2, 1
0047   2???           00103         GOTO Repeticion2
0048   0B90           00104         DECFSZ Contador1, 1
0049   2???           00105         GOTO Repeticion1
004A   0008           00106         return
Warning[205]: Found directive in column 1. (END)
3FF1                  00107 END
MPASM 5.84                         MAINC.ASM   4-11-2020  17:21:04         PAGE  4


SYMBOL TABLE
  LABEL                             VALUE 

ActualizarDisplay                 0000002B
BCD7SEG                           00000005
C                                 00000000
Centena                           0000000E
Ciclo                             00000019
Contador                          0000000F
Contador1                         00000010
Contador2                         00000011
DC                                00000001
Decena                            0000000D
EEADR                             00000009
EECON1                            00000088
EECON2                            00000089
EEDATA                            00000008
EEIE                              00000006
EEIF                              00000004
Esperar_5ms                       00000042
F                                 00000001
FSR                               00000004
GIE                               00000007
INDF                              00000000
INTCON                            0000000B
INTE                              00000004
INTEDG                            00000006
INTF                              00000001
IRP                               00000007
MuestroC                          00000000
MuestroD                          00000001
MuestroU                          00000002
NOT_PD                            00000003
NOT_RBPU                          00000007
NOT_TO                            00000004
OPTION_REG                        00000081
PCL                               00000002
PCLATH                            0000000A
PORTA                             00000005
PORTB                             00000006
PS0                               00000000
PS1                               00000001
PS2                               00000002
PSA                               00000003
RA0                               00000000
RA1                               00000001
RA2                               00000002
RA3                               00000003
RA4                               00000004
RB0                               00000000
RB1                               00000001
RB2                               00000002
RB3                               00000003
RB4                               00000004
RB5                               00000005
RB6                               00000006
MPASM 5.84                         MAINC.ASM   4-11-2020  17:21:04         PAGE  5


SYMBOL TABLE
  LABEL                             VALUE 

RB7                               00000007
RBIE                              00000003
RBIF                              00000000
RD                                00000000
RP0                               00000005
RP1                               00000006
Refrescar                         0000002D
Repeticion1                       00000044
Repeticion2                       00000046
START                             00000010
STATUS                            00000003
T0CS                              00000005
T0IE                              00000005
T0IF                              00000002
T0SE                              00000004
TMR0                              00000001
TMR0IE                            00000005
TMR0IF                            00000002
TRISA                             00000085
TRISA0                            00000000
TRISA1                            00000001
TRISA2                            00000002
TRISA3                            00000003
TRISA4                            00000004
TRISB                             00000086
TRISB0                            00000000
TRISB1                            00000001
TRISB2                            00000002
TRISB3                            00000003
TRISB4                            00000004
TRISB5                            00000005
TRISB6                            00000006
TRISB7                            00000007
Unidad                            0000000C
W                                 00000000
WR                                00000001
WREN                              00000002
WRERR                             00000003
Z                                 00000002
_CONFIG                           00002007
_CP_OFF                           00003FFF
_CP_ON                            0000000F
_DEVID1                           00002006
_FOSC_EXTRC                       00003FFF
_FOSC_HS                          00003FFE
_FOSC_LP                          00003FFC
_FOSC_XT                          00003FFD
_HS_OSC                           00003FFE
_IDLOC0                           00002000
_IDLOC1                           00002001
_IDLOC2                           00002002
_IDLOC3                           00002003
_LP_OSC                           00003FFC
MPASM 5.84                         MAINC.ASM   4-11-2020  17:21:04         PAGE  6


SYMBOL TABLE
  LABEL                             VALUE 

_PWRTE_OFF                        00003FFF
_PWRTE_ON                         00003FF7
_RC_OSC                           00003FFF
_WDTE_OFF                         00003FFB
_WDTE_ON                          00003FFF
_WDT_OFF                          00003FFB
_WDT_ON                           00003FFF
_XT_OSC                           00003FFD
__16F84A                          00000001

Errors   :     0
Warnings :    19 reported,     0 suppressed
Messages :     2 reported,     0 suppressed

