

Microchip MPLAB XC8 Assembler V2.10 build 88905656 
                                                                                               Sat Apr 11 19:38:12 2020

Microchip MPLAB XC8 C Compiler v2.10 (Free license) build 20190730164152 Og1 
     1                           	processor	16F1938
     2                           	opt	pw 120
     3                           	opt	flic
     4                           	psect	stringtext1,global,class=STRCODE,delta=2
     5                           	psect	stringtext2,global,class=STRCODE,delta=2
     6                           	psect	stringtext3,global,class=STRCODE,delta=2
     7                           	psect	cinit,global,class=CODE,merge=1,delta=2
     8                           	psect	bssBANK1,global,class=BANK1,space=1,delta=1
     9                           	psect	bssBANK2,global,class=BANK2,space=1,delta=1
    10                           	psect	clrtext,global,class=CODE,delta=2
    11                           	psect	cstackBANK1,global,class=BANK1,space=1,delta=1
    12                           	psect	cstackCOMMON,global,class=COMMON,space=1,delta=1
    13                           	psect	cstackBANK0,global,class=BANK0,space=1,delta=1
    14                           	psect	maintext,global,class=CODE,merge=1,split=1,delta=2
    15                           	psect	text1,local,class=CODE,merge=1,delta=2,group=2
    16                           	psect	text2,local,class=CODE,merge=1,delta=2
    17                           	psect	text3,local,class=CODE,merge=1,delta=2
    18                           	psect	text4,local,class=CODE,merge=1,delta=2
    19                           	psect	text5,local,class=CODE,merge=1,delta=2
    20                           	psect	text6,local,class=CODE,merge=1,delta=2,group=2
    21                           	psect	text7,local,class=CODE,merge=1,delta=2,group=2
    22                           	psect	text8,local,class=CODE,merge=1,delta=2,group=2
    23                           	psect	text9,local,class=CODE,merge=1,delta=2,group=2
    24                           	psect	text10,local,class=CODE,merge=1,delta=2,group=2
    25                           	psect	text11,local,class=CODE,merge=1,delta=2,group=1
    26                           	psect	text12,local,class=CODE,merge=1,delta=2,group=1
    27                           	psect	text13,local,class=CODE,merge=1,delta=2,group=2
    28                           	psect	text14,local,class=CODE,merge=1,delta=2,group=2
    29                           	psect	text15,local,class=CODE,merge=1,delta=2,group=2
    30                           	psect	text16,local,class=CODE,merge=1,delta=2,group=1
    31                           	psect	text17,local,class=CODE,merge=1,delta=2,group=1
    32                           	psect	text18,local,class=CODE,merge=1,delta=2,group=1
    33                           	psect	text19,local,class=CODE,merge=1,delta=2,group=1
    34                           	psect	text20,local,class=CODE,merge=1,delta=2,group=1
    35                           	psect	text21,local,class=CODE,merge=1,delta=2,group=1
    36                           	psect	text22,local,class=CODE,merge=1,delta=2
    37                           	psect	text23,local,class=CODE,merge=1,delta=2
    38                           	psect	text24,local,class=CODE,merge=1,delta=2
    39                           	psect	text25,local,class=CODE,merge=1,delta=2
    40                           	dabs	1,0x7E,2
    41  0000                     
    42                           ; Version 2.10
    43                           ; Generated 31/07/2019 GMT
    44                           ; 
    45                           ; Copyright © 2019, Microchip Technology Inc. and its subsidiaries ("Microchip")
    46                           ; All rights reserved.
    47                           ; 
    48                           ; This software is developed by Microchip Technology Inc. and its subsidiaries ("Microch
      +                          ip").
    49                           ; 
    50                           ; Redistribution and use in source and binary forms, with or without modification, are
    51                           ; permitted provided that the following conditions are met:
    52                           ; 
    53                           ;     1. Redistributions of source code must retain the above copyright notice, this lis
      +                          t of
    54                           ;        conditions and the following disclaimer.
    55                           ; 
    56                           ;     2. Redistributions in binary form must reproduce the above copyright notice, this 
      +                          list
    57                           ;        of conditions and the following disclaimer in the documentation and/or other
    58                           ;        materials provided with the distribution.
    59                           ; 
    60                           ;     3. Microchip's name may not be used to endorse or promote products derived from th
      +                          is
    61                           ;        software without specific prior written permission.
    62                           ; 
    63                           ; THIS SOFTWARE IS PROVIDED BY MICROCHIP "AS IS" AND ANY EXPRESS OR IMPLIED WARRANTIES,
    64                           ; INCLUDING, BUT NOT LIMITED TO, THE IMPLIED WARRANTIES OF MERCHANTABILITY AND FITNESS F
      +                          OR
    65                           ; PURPOSE ARE DISCLAIMED.  IN NO EVENT SHALL MICROCHIP BE LIABLE FOR ANY DIRECT, INDIREC
      +                          T,
    66                           ; INCIDENTAL, SPECIAL, EXEMPLARY, OR CONSEQUENTIAL DAMAGES (INCLUDING BUT NOT LIMITED TO
    67                           ; PROCUREMENT OF SUBSTITUTE GOODS OR SERVICES; LOSS OF USE, DATA OR PROFITS; OR BUSINESS
    68                           ; INTERRUPTION) HOWSOEVER CAUSED AND ON ANY THEORY OF LIABILITY, WHETHER IN CONTRACT, ST
      +                          RICT
    69                           ; LIABILITY, OR TORT (INCLUDING NEGLIGENCE OR OTHERWISE) ARISING IN ANY WAY OUT OF THE U
      +                          SE OF
    70                           ; THIS SOFTWARE, EVEN IF ADVISED OF THE POSSIBILITY OF SUCH DAMAGE.
    71                           ; 
    72                           ; 
    73                           ; Code-generator required, PIC16F1938 Definitions
    74                           ; 
    75                           ; SFR Addresses
    76  0000                     	;# 
    77  0001                     	;# 
    78  0002                     	;# 
    79  0003                     	;# 
    80  0004                     	;# 
    81  0005                     	;# 
    82  0006                     	;# 
    83  0007                     	;# 
    84  0008                     	;# 
    85  0009                     	;# 
    86  000A                     	;# 
    87  000B                     	;# 
    88  000C                     	;# 
    89  000D                     	;# 
    90  000E                     	;# 
    91  0010                     	;# 
    92  0011                     	;# 
    93  0012                     	;# 
    94  0013                     	;# 
    95  0015                     	;# 
    96  0016                     	;# 
    97  0016                     	;# 
    98  0017                     	;# 
    99  0018                     	;# 
   100  0019                     	;# 
   101  001A                     	;# 
   102  001B                     	;# 
   103  001C                     	;# 
   104  001E                     	;# 
   105  001F                     	;# 
   106  008C                     	;# 
   107  008D                     	;# 
   108  008E                     	;# 
   109  0090                     	;# 
   110  0091                     	;# 
   111  0092                     	;# 
   112  0093                     	;# 
   113  0095                     	;# 
   114  0096                     	;# 
   115  0097                     	;# 
   116  0098                     	;# 
   117  0099                     	;# 
   118  009A                     	;# 
   119  009B                     	;# 
   120  009B                     	;# 
   121  009C                     	;# 
   122  009D                     	;# 
   123  009E                     	;# 
   124  010C                     	;# 
   125  010D                     	;# 
   126  010E                     	;# 
   127  0110                     	;# 
   128  0111                     	;# 
   129  0112                     	;# 
   130  0113                     	;# 
   131  0114                     	;# 
   132  0115                     	;# 
   133  0116                     	;# 
   134  0117                     	;# 
   135  0118                     	;# 
   136  0119                     	;# 
   137  011A                     	;# 
   138  011B                     	;# 
   139  011D                     	;# 
   140  018C                     	;# 
   141  018D                     	;# 
   142  0191                     	;# 
   143  0191                     	;# 
   144  0192                     	;# 
   145  0193                     	;# 
   146  0193                     	;# 
   147  0193                     	;# 
   148  0194                     	;# 
   149  0195                     	;# 
   150  0196                     	;# 
   151  0199                     	;# 
   152  019A                     	;# 
   153  019B                     	;# 
   154  019B                     	;# 
   155  019B                     	;# 
   156  019B                     	;# 
   157  019C                     	;# 
   158  019C                     	;# 
   159  019D                     	;# 
   160  019E                     	;# 
   161  019F                     	;# 
   162  020D                     	;# 
   163  0210                     	;# 
   164  0211                     	;# 
   165  0212                     	;# 
   166  0213                     	;# 
   167  0214                     	;# 
   168  0215                     	;# 
   169  0215                     	;# 
   170  0216                     	;# 
   171  0217                     	;# 
   172  0291                     	;# 
   173  0291                     	;# 
   174  0292                     	;# 
   175  0293                     	;# 
   176  0294                     	;# 
   177  0295                     	;# 
   178  0295                     	;# 
   179  0296                     	;# 
   180  0298                     	;# 
   181  0298                     	;# 
   182  0299                     	;# 
   183  029A                     	;# 
   184  029B                     	;# 
   185  029C                     	;# 
   186  029C                     	;# 
   187  029D                     	;# 
   188  029E                     	;# 
   189  029F                     	;# 
   190  0311                     	;# 
   191  0311                     	;# 
   192  0312                     	;# 
   193  0313                     	;# 
   194  0314                     	;# 
   195  0315                     	;# 
   196  0315                     	;# 
   197  0316                     	;# 
   198  0318                     	;# 
   199  0318                     	;# 
   200  0319                     	;# 
   201  031A                     	;# 
   202  031C                     	;# 
   203  031C                     	;# 
   204  031D                     	;# 
   205  031E                     	;# 
   206  0394                     	;# 
   207  0395                     	;# 
   208  0396                     	;# 
   209  0415                     	;# 
   210  0416                     	;# 
   211  0417                     	;# 
   212  041C                     	;# 
   213  041D                     	;# 
   214  041E                     	;# 
   215  0791                     	;# 
   216  0792                     	;# 
   217  0793                     	;# 
   218  0794                     	;# 
   219  0795                     	;# 
   220  0798                     	;# 
   221  0799                     	;# 
   222  07A0                     	;# 
   223  07A1                     	;# 
   224  07A3                     	;# 
   225  07A4                     	;# 
   226  07A6                     	;# 
   227  07A7                     	;# 
   228  07A9                     	;# 
   229  07AA                     	;# 
   230  0FE4                     	;# 
   231  0FE5                     	;# 
   232  0FE6                     	;# 
   233  0FE7                     	;# 
   234  0FE8                     	;# 
   235  0FE9                     	;# 
   236  0FEA                     	;# 
   237  0FEB                     	;# 
   238  0FED                     	;# 
   239  0FEE                     	;# 
   240  0FEF                     	;# 
   241  0000                     	;# 
   242  0001                     	;# 
   243  0002                     	;# 
   244  0003                     	;# 
   245  0004                     	;# 
   246  0005                     	;# 
   247  0006                     	;# 
   248  0007                     	;# 
   249  0008                     	;# 
   250  0009                     	;# 
   251  000A                     	;# 
   252  000B                     	;# 
   253  000C                     	;# 
   254  000D                     	;# 
   255  000E                     	;# 
   256  0010                     	;# 
   257  0011                     	;# 
   258  0012                     	;# 
   259  0013                     	;# 
   260  0015                     	;# 
   261  0016                     	;# 
   262  0016                     	;# 
   263  0017                     	;# 
   264  0018                     	;# 
   265  0019                     	;# 
   266  001A                     	;# 
   267  001B                     	;# 
   268  001C                     	;# 
   269  001E                     	;# 
   270  001F                     	;# 
   271  008C                     	;# 
   272  008D                     	;# 
   273  008E                     	;# 
   274  0090                     	;# 
   275  0091                     	;# 
   276  0092                     	;# 
   277  0093                     	;# 
   278  0095                     	;# 
   279  0096                     	;# 
   280  0097                     	;# 
   281  0098                     	;# 
   282  0099                     	;# 
   283  009A                     	;# 
   284  009B                     	;# 
   285  009B                     	;# 
   286  009C                     	;# 
   287  009D                     	;# 
   288  009E                     	;# 
   289  010C                     	;# 
   290  010D                     	;# 
   291  010E                     	;# 
   292  0110                     	;# 
   293  0111                     	;# 
   294  0112                     	;# 
   295  0113                     	;# 
   296  0114                     	;# 
   297  0115                     	;# 
   298  0116                     	;# 
   299  0117                     	;# 
   300  0118                     	;# 
   301  0119                     	;# 
   302  011A                     	;# 
   303  011B                     	;# 
   304  011D                     	;# 
   305  018C                     	;# 
   306  018D                     	;# 
   307  0191                     	;# 
   308  0191                     	;# 
   309  0192                     	;# 
   310  0193                     	;# 
   311  0193                     	;# 
   312  0193                     	;# 
   313  0194                     	;# 
   314  0195                     	;# 
   315  0196                     	;# 
   316  0199                     	;# 
   317  019A                     	;# 
   318  019B                     	;# 
   319  019B                     	;# 
   320  019B                     	;# 
   321  019B                     	;# 
   322  019C                     	;# 
   323  019C                     	;# 
   324  019D                     	;# 
   325  019E                     	;# 
   326  019F                     	;# 
   327  020D                     	;# 
   328  0210                     	;# 
   329  0211                     	;# 
   330  0212                     	;# 
   331  0213                     	;# 
   332  0214                     	;# 
   333  0215                     	;# 
   334  0215                     	;# 
   335  0216                     	;# 
   336  0217                     	;# 
   337  0291                     	;# 
   338  0291                     	;# 
   339  0292                     	;# 
   340  0293                     	;# 
   341  0294                     	;# 
   342  0295                     	;# 
   343  0295                     	;# 
   344  0296                     	;# 
   345  0298                     	;# 
   346  0298                     	;# 
   347  0299                     	;# 
   348  029A                     	;# 
   349  029B                     	;# 
   350  029C                     	;# 
   351  029C                     	;# 
   352  029D                     	;# 
   353  029E                     	;# 
   354  029F                     	;# 
   355  0311                     	;# 
   356  0311                     	;# 
   357  0312                     	;# 
   358  0313                     	;# 
   359  0314                     	;# 
   360  0315                     	;# 
   361  0315                     	;# 
   362  0316                     	;# 
   363  0318                     	;# 
   364  0318                     	;# 
   365  0319                     	;# 
   366  031A                     	;# 
   367  031C                     	;# 
   368  031C                     	;# 
   369  031D                     	;# 
   370  031E                     	;# 
   371  0394                     	;# 
   372  0395                     	;# 
   373  0396                     	;# 
   374  0415                     	;# 
   375  0416                     	;# 
   376  0417                     	;# 
   377  041C                     	;# 
   378  041D                     	;# 
   379  041E                     	;# 
   380  0791                     	;# 
   381  0792                     	;# 
   382  0793                     	;# 
   383  0794                     	;# 
   384  0795                     	;# 
   385  0798                     	;# 
   386  0799                     	;# 
   387  07A0                     	;# 
   388  07A1                     	;# 
   389  07A3                     	;# 
   390  07A4                     	;# 
   391  07A6                     	;# 
   392  07A7                     	;# 
   393  07A9                     	;# 
   394  07AA                     	;# 
   395  0FE4                     	;# 
   396  0FE5                     	;# 
   397  0FE6                     	;# 
   398  0FE7                     	;# 
   399  0FE8                     	;# 
   400  0FE9                     	;# 
   401  0FEA                     	;# 
   402  0FEB                     	;# 
   403  0FED                     	;# 
   404  0FEE                     	;# 
   405  0FEF                     	;# 
   406  000E                     _PORTCbits	set	14
   407  009B                     _ADRESL	set	155
   408  009C                     _ADRESH	set	156
   409  009E                     _ADCON1bits	set	158
   410  009D                     _ADCON0bits	set	157
   411  008C                     _TRISA	set	140
   412  0099                     _OSCCONbits	set	153
   413  008E                     _TRISCbits	set	142
   414  04E9                     _GO	set	1257
   415  018C                     _ANSELA	set	396
   416                           
   417                           	psect	stringtext1
   418  1800                     __pstringtext1:	
   419  1800                     STR_1:	
   420  1800  3450               	retlw	80	;'P'
   421  1801  346F               	retlw	111	;'o'
   422  1802  3472               	retlw	114	;'r'
   423  1803  3463               	retlw	99	;'c'
   424  1804  3465               	retlw	101	;'e'
   425  1805  346E               	retlw	110	;'n'
   426  1806  3474               	retlw	116	;'t'
   427  1807  3461               	retlw	97	;'a'
   428  1808  346A               	retlw	106	;'j'
   429  1809  3465               	retlw	101	;'e'
   430  180A  3420               	retlw	32	;' '
   431  180B  3425               	retlw	37	;'%'
   432  180C  3430               	retlw	48	;'0'
   433  180D  3434               	retlw	52	;'4'
   434  180E  3464               	retlw	100	;'d'
   435  180F  3400               	retlw	0
   436                           
   437                           	psect	stringtext2
   438  1810                     __pstringtext2:	
   439  1810                     STR_2:	
   440  1810  3423               	retlw	35	;'#'
   441  1811  3420               	retlw	32	;' '
   442  1812  344C               	retlw	76	;'L'
   443  1813  3461               	retlw	97	;'a'
   444  1814  346D               	retlw	109	;'m'
   445  1815  3470               	retlw	112	;'p'
   446  1816  3473               	retlw	115	;'s'
   447  1817  3420               	retlw	32	;' '
   448  1818  344F               	retlw	79	;'O'
   449  1819  346E               	retlw	110	;'n'
   450  181A  3420               	retlw	32	;' '
   451  181B  3425               	retlw	37	;'%'
   452  181C  3430               	retlw	48	;'0'
   453  181D  3434               	retlw	52	;'4'
   454  181E  3464               	retlw	100	;'d'
   455  181F  3400               	retlw	0
   456                           
   457                           	psect	stringtext3
   458  0000                     __pstringtext3:	
   459                           
   460                           ; #config settings
   461  0000                     
   462                           	psect	cinit
   463  07ED                     start_initialization:	
   464  07ED                     __initialization:	
   465                           
   466                           ; Clear objects allocated to BANK1
   467  07ED  30CA               	movlw	low __pbssBANK1
   468  07EE  0084               	movwf	4
   469  07EF  3000               	movlw	high __pbssBANK1
   470  07F0  0085               	movwf	5
   471  07F1  3008               	movlw	8
   472  07F2  3188  2009  3187   	fcall	clear_ram0
   473                           
   474                           ; Clear objects allocated to BANK2
   475  07F5  3020               	movlw	low __pbssBANK2
   476  07F6  0084               	movwf	4
   477  07F7  3001               	movlw	high __pbssBANK2
   478  07F8  0085               	movwf	5
   479  07F9  3020               	movlw	32
   480  07FA  3188  2009  3187   	fcall	clear_ram0
   481  07FD                     end_of_initialization:	
   482                           ;End of C runtime variable initialization code
   483                           
   484  07FD                     __end_of__initialization:	
   485  07FD  0020               	movlb	0
   486  07FE  3180  28A6         	ljmp	_main	;jump to C main() function
   487                           
   488                           	psect	bssBANK1
   489  00CA                     __pbssBANK1:	
   490  00CA                     _nout:	
   491  00CA                     	ds	2
   492  00CC                     _width:	
   493  00CC                     	ds	2
   494  00CE                     _prec:	
   495  00CE                     	ds	2
   496  00D0                     _flags:	
   497  00D0                     	ds	2
   498                           
   499                           	psect	bssBANK2
   500  0120                     __pbssBANK2:	
   501  0120                     _dbuf:	
   502  0120                     	ds	32
   503                           
   504                           	psect	clrtext
   505  0809                     clear_ram0:	
   506                           ;	Called with FSR0 containing the base address, and
   507                           ;	WREG with the size to clear
   508                           
   509  0809  0064               	clrwdt	;clear the watchdog before getting into this loop
   510  080A                     clrloop0:	
   511  080A  0180               	clrf	0	;clear RAM location pointed to by FSR
   512  080B  3101               	addfsr 0,1
   513  080C  0B89               	decfsz	9,f	;Have we reached the end of clearing yet?
   514  080D  280A               	goto	clrloop0	;have we reached the end yet?
   515  080E  3400               	retlw	0	;all done for this memory range, return
   516                           
   517                           	psect	cstackBANK1
   518  00A0                     __pcstackBANK1:	
   519  00A0                     	ds	2
   520  00A2                     sprintf@ap:	
   521                           
   522                           ; 1 bytes @ 0x2
   523  00A2                     	ds	1
   524  00A3                     sprintf@s:	
   525                           
   526                           ; 1 bytes @ 0x3
   527  00A3                     	ds	1
   528  00A4                     sprintf@f:	
   529                           
   530                           ; 5 bytes @ 0x4
   531  00A4                     	ds	5
   532  00A9                     ??_main:	
   533                           
   534                           ; 1 bytes @ 0x9
   535  00A9                     	ds	3
   536  00AC                     main@buffer1:	
   537                           
   538                           ; 16 bytes @ 0xC
   539  00AC                     	ds	20
   540  00C0                     main@volt:	
   541                           
   542                           ; 4 bytes @ 0x20
   543  00C0                     	ds	4
   544  00C4                     main@numLamps:	
   545                           
   546                           ; 2 bytes @ 0x24
   547  00C4                     	ds	2
   548  00C6                     main@adc:	
   549                           
   550                           ; 2 bytes @ 0x26
   551  00C6                     	ds	2
   552  00C8                     main@perc:	
   553                           
   554                           ; 2 bytes @ 0x28
   555  00C8                     	ds	2
   556                           
   557                           	psect	cstackCOMMON
   558  0070                     __pcstackCOMMON:	
   559  0070                     ?_Lcd_Cmd:	
   560  0070                     ??_Lcd_Cmd:	
   561                           ; 1 bytes @ 0x0
   562                           
   563  0070                     ?_Lcd_Chr_CP:	
   564                           ; 1 bytes @ 0x0
   565                           
   566  0070                     ??_Lcd_Chr_CP:	
   567                           ; 1 bytes @ 0x0
   568                           
   569  0070                     ?_putch:	
   570                           ; 1 bytes @ 0x0
   571                           
   572  0070                     ??_putch:	
   573                           ; 1 bytes @ 0x0
   574                           
   575  0070                     ?_Lcd_Init:	
   576                           ; 1 bytes @ 0x0
   577                           
   578  0070                     ?_main:	
   579                           ; 1 bytes @ 0x0
   580                           
   581  0070                     ??___aodiv:	
   582                           ; 1 bytes @ 0x0
   583                           
   584  0070                     ??___aomod:	
   585                           ; 1 bytes @ 0x0
   586                           
   587  0070                     ?_fputc:	
   588                           ; 1 bytes @ 0x0
   589                           
   590  0070                     ?_strlen:	
   591                           ; 2 bytes @ 0x0
   592                           
   593  0070                     ?_isdigit:	
   594                           ; 2 bytes @ 0x0
   595                           
   596  0070                     ?__Umul8_16:	
   597                           ; 2 bytes @ 0x0
   598                           
   599  0070                     ?_isspace:	
   600                           ; 2 bytes @ 0x0
   601                           
   602  0070                     ?___wmul:	
   603                           ; 2 bytes @ 0x0
   604                           
   605  0070                     ?___xxtofl:	
   606                           ; 2 bytes @ 0x0
   607                           
   608  0070                     putch@c:	
   609                           ; 4 bytes @ 0x0
   610                           
   611  0070                     __Umul8_16@multiplicand:	
   612                           ; 1 bytes @ 0x0
   613                           
   614  0070                     ___wmul@multiplier:	
   615                           ; 1 bytes @ 0x0
   616                           
   617  0070                     isdigit@c:	
   618                           ; 2 bytes @ 0x0
   619                           
   620  0070                     isspace@c:	
   621                           ; 2 bytes @ 0x0
   622                           
   623  0070                     fputc@c:	
   624                           ; 2 bytes @ 0x0
   625                           
   626  0070                     ___xxtofl@val:	
   627                           ; 2 bytes @ 0x0
   628                           
   629                           
   630                           ; 4 bytes @ 0x0
   631  0070                     	ds	1
   632  0071                     ___aodiv@counter:	
   633  0071                     ___aomod@counter:	
   634                           ; 1 bytes @ 0x1
   635                           
   636                           
   637                           ; 1 bytes @ 0x1
   638  0071                     	ds	1
   639  0072                     ??_strlen:	
   640  0072                     ??_isdigit:	
   641                           ; 1 bytes @ 0x2
   642                           
   643  0072                     ??__Umul8_16:	
   644                           ; 1 bytes @ 0x2
   645                           
   646  0072                     ??_isspace:	
   647                           ; 1 bytes @ 0x2
   648                           
   649  0072                     Lcd_Chr_CP@data:	
   650                           ; 1 bytes @ 0x2
   651                           
   652  0072                     Lcd_Cmd@data:	
   653                           ; 1 bytes @ 0x2
   654                           
   655  0072                     ___aodiv@sign:	
   656                           ; 1 bytes @ 0x2
   657                           
   658  0072                     ___aomod@sign:	
   659                           ; 1 bytes @ 0x2
   660                           
   661  0072                     fputc@fp:	
   662                           ; 1 bytes @ 0x2
   663                           
   664  0072                     ___wmul@multiplicand:	
   665                           ; 1 bytes @ 0x2
   666                           
   667                           
   668                           ; 2 bytes @ 0x2
   669  0072                     	ds	1
   670  0073                     ??_fputc:	
   671  0073                     ??_Lcd_Init:	
   672                           ; 1 bytes @ 0x3
   673                           
   674  0073                     ?_Lcd_Out2:	
   675                           ; 1 bytes @ 0x3
   676                           
   677  0073                     ?_abs:	
   678                           ; 1 bytes @ 0x3
   679                           
   680  0073                     Lcd_Out2@x:	
   681                           ; 2 bytes @ 0x3
   682                           
   683  0073                     strlen@a:	
   684                           ; 1 bytes @ 0x3
   685                           
   686  0073                     abs@a:	
   687                           ; 1 bytes @ 0x3
   688                           
   689  0073                     ___aodiv@quotient:	
   690                           ; 2 bytes @ 0x3
   691                           
   692                           
   693                           ; 8 bytes @ 0x3
   694  0073                     	ds	1
   695  0074                     ??___wmul:	
   696  0074                     ??___xxtofl:	
   697                           ; 1 bytes @ 0x4
   698                           
   699  0074                     Lcd_Init@data:	
   700                           ; 1 bytes @ 0x4
   701                           
   702  0074                     Lcd_Out2@buffer:	
   703                           ; 1 bytes @ 0x4
   704                           
   705  0074                     _isspace$837:	
   706                           ; 1 bytes @ 0x4
   707                           
   708  0074                     strlen@s:	
   709                           ; 1 bytes @ 0x4
   710                           
   711  0074                     ___wmul@product:	
   712                           ; 1 bytes @ 0x4
   713                           
   714  0074                     __Umul8_16@product:	
   715                           ; 2 bytes @ 0x4
   716                           
   717                           
   718                           ; 2 bytes @ 0x4
   719  0074                     	ds	1
   720  0075                     ??_abs:	
   721  0075                     ??_Lcd_Out2:	
   722                           ; 1 bytes @ 0x5
   723                           
   724                           
   725                           ; 1 bytes @ 0x5
   726  0075                     	ds	1
   727  0076                     ?_atoi:	
   728  0076                     atoi@s:	
   729                           ; 2 bytes @ 0x6
   730                           
   731  0076                     __Umul8_16@word_mpld:	
   732                           ; 2 bytes @ 0x6
   733                           
   734                           
   735                           ; 2 bytes @ 0x6
   736  0076                     	ds	1
   737  0077                     Lcd_Out2@y:	
   738                           
   739                           ; 1 bytes @ 0x7
   740  0077                     	ds	1
   741  0078                     ??_atoi:	
   742  0078                     ?_fputs:	
   743                           ; 1 bytes @ 0x8
   744                           
   745  0078                     Lcd_Out2@data:	
   746                           ; 2 bytes @ 0x8
   747                           
   748  0078                     ___xxtofl@sign:	
   749                           ; 1 bytes @ 0x8
   750                           
   751  0078                     fputs@fp:	
   752                           ; 1 bytes @ 0x8
   753                           
   754  0078                     __Umul8_16@multiplier:	
   755                           ; 1 bytes @ 0x8
   756                           
   757                           
   758                           ; 1 bytes @ 0x8
   759  0078                     	ds	1
   760  0079                     ??_fputs:	
   761  0079                     ___xxtofl@exp:	
   762                           ; 1 bytes @ 0x9
   763                           
   764                           
   765                           ; 1 bytes @ 0x9
   766  0079                     	ds	1
   767  007A                     ___xxtofl@arg:	
   768                           
   769                           ; 4 bytes @ 0xA
   770  007A                     	ds	2
   771  007C                     ??_pad:	
   772                           
   773                           ; 1 bytes @ 0xC
   774  007C                     	ds	1
   775  007D                     ??_sprintf:	
   776                           
   777                           ; 1 bytes @ 0xD
   778  007D                     	ds	1
   779                           
   780                           	psect	cstackBANK0
   781  0020                     __pcstackBANK0:	
   782  0020                     ?___flmul:	
   783  0020                     ?___aodiv:	
   784                           ; 4 bytes @ 0x0
   785                           
   786  0020                     ?___aomod:	
   787                           ; 8 bytes @ 0x0
   788                           
   789  0020                     fputs@c:	
   790                           ; 8 bytes @ 0x0
   791                           
   792  0020                     atoi@neg:	
   793                           ; 1 bytes @ 0x0
   794                           
   795  0020                     ___flmul@b:	
   796                           ; 2 bytes @ 0x0
   797                           
   798  0020                     ___aodiv@divisor:	
   799                           ; 4 bytes @ 0x0
   800                           
   801  0020                     ___aomod@divisor:	
   802                           ; 8 bytes @ 0x0
   803                           
   804                           
   805                           ; 8 bytes @ 0x0
   806  0020                     	ds	1
   807  0021                     fputs@i:	
   808                           
   809                           ; 2 bytes @ 0x1
   810  0021                     	ds	1
   811  0022                     _atoi$819:	
   812                           
   813                           ; 2 bytes @ 0x2
   814  0022                     	ds	1
   815  0023                     fputs@s:	
   816                           
   817                           ; 1 bytes @ 0x3
   818  0023                     	ds	1
   819  0024                     ?_pad:	
   820  0024                     pad@buf:	
   821                           ; 2 bytes @ 0x4
   822                           
   823  0024                     _atoi$821:	
   824                           ; 1 bytes @ 0x4
   825                           
   826  0024                     ___flmul@a:	
   827                           ; 2 bytes @ 0x4
   828                           
   829                           
   830                           ; 4 bytes @ 0x4
   831  0024                     	ds	1
   832  0025                     pad@p:	
   833                           
   834                           ; 2 bytes @ 0x5
   835  0025                     	ds	1
   836  0026                     _atoi$820:	
   837                           
   838                           ; 1 bytes @ 0x6
   839  0026                     	ds	1
   840  0027                     pad@i:	
   841  0027                     atoi@n:	
   842                           ; 2 bytes @ 0x7
   843                           
   844                           
   845                           ; 2 bytes @ 0x7
   846  0027                     	ds	1
   847  0028                     ??___flmul:	
   848  0028                     ___aodiv@dividend:	
   849                           ; 1 bytes @ 0x8
   850                           
   851  0028                     ___aomod@dividend:	
   852                           ; 8 bytes @ 0x8
   853                           
   854                           
   855                           ; 8 bytes @ 0x8
   856  0028                     	ds	1
   857  0029                     pad@w:	
   858                           
   859                           ; 2 bytes @ 0x9
   860  0029                     	ds	2
   861  002B                     pad@fp:	
   862                           
   863                           ; 1 bytes @ 0xB
   864  002B                     	ds	2
   865  002D                     ___flmul@sign:	
   866                           
   867                           ; 1 bytes @ 0xD
   868  002D                     	ds	1
   869  002E                     ___flmul@grs:	
   870                           
   871                           ; 4 bytes @ 0xE
   872  002E                     	ds	2
   873  0030                     ?_dtoa:	
   874  0030                     dtoa@d:	
   875                           ; 2 bytes @ 0x10
   876                           
   877                           
   878                           ; 8 bytes @ 0x10
   879  0030                     	ds	2
   880  0032                     ___flmul@aexp:	
   881                           
   882                           ; 1 bytes @ 0x12
   883  0032                     	ds	1
   884  0033                     ___flmul@bexp:	
   885                           
   886                           ; 1 bytes @ 0x13
   887  0033                     	ds	1
   888  0034                     ___flmul@prod:	
   889                           
   890                           ; 4 bytes @ 0x14
   891  0034                     	ds	4
   892  0038                     ??_dtoa:	
   893  0038                     ___flmul@temp:	
   894                           ; 1 bytes @ 0x18
   895                           
   896                           
   897                           ; 2 bytes @ 0x18
   898  0038                     	ds	2
   899  003A                     ?___fldiv:	
   900  003A                     ___fldiv@a:	
   901                           ; 4 bytes @ 0x1A
   902                           
   903                           
   904                           ; 4 bytes @ 0x1A
   905  003A                     	ds	1
   906  003B                     _dtoa$509:	
   907                           
   908                           ; 2 bytes @ 0x1B
   909  003B                     	ds	2
   910  003D                     dtoa@fp:	
   911                           
   912                           ; 1 bytes @ 0x1D
   913  003D                     	ds	1
   914  003E                     dtoa@p:	
   915  003E                     ___fldiv@b:	
   916                           ; 2 bytes @ 0x1E
   917                           
   918                           
   919                           ; 4 bytes @ 0x1E
   920  003E                     	ds	2
   921  0040                     dtoa@w:	
   922                           
   923                           ; 2 bytes @ 0x20
   924  0040                     	ds	2
   925  0042                     ??___fldiv:	
   926  0042                     dtoa@s:	
   927                           ; 1 bytes @ 0x22
   928                           
   929                           
   930                           ; 2 bytes @ 0x22
   931  0042                     	ds	2
   932  0044                     dtoa@n:	
   933                           
   934                           ; 8 bytes @ 0x24
   935  0044                     	ds	3
   936  0047                     ___fldiv@rem:	
   937                           
   938                           ; 4 bytes @ 0x27
   939  0047                     	ds	4
   940  004B                     ___fldiv@sign:	
   941                           
   942                           ; 1 bytes @ 0x2B
   943  004B                     	ds	1
   944  004C                     dtoa@i:	
   945  004C                     ___fldiv@new_exp:	
   946                           ; 2 bytes @ 0x2C
   947                           
   948                           
   949                           ; 2 bytes @ 0x2C
   950  004C                     	ds	2
   951  004E                     ?_vfpfcnvrt:	
   952  004E                     vfpfcnvrt@fmt:	
   953                           ; 2 bytes @ 0x2E
   954                           
   955  004E                     ___fldiv@grs:	
   956                           ; 1 bytes @ 0x2E
   957                           
   958                           
   959                           ; 4 bytes @ 0x2E
   960  004E                     	ds	1
   961  004F                     vfpfcnvrt@ap:	
   962                           
   963                           ; 1 bytes @ 0x2F
   964  004F                     	ds	1
   965  0050                     ??_vfpfcnvrt:	
   966                           
   967                           ; 1 bytes @ 0x30
   968  0050                     	ds	2
   969  0052                     ___fldiv@bexp:	
   970                           
   971                           ; 1 bytes @ 0x32
   972  0052                     	ds	1
   973  0053                     ___fldiv@aexp:	
   974                           
   975                           ; 1 bytes @ 0x33
   976  0053                     	ds	1
   977  0054                     ?___fltol:	
   978  0054                     ___fltol@f1:	
   979                           ; 4 bytes @ 0x34
   980                           
   981                           
   982                           ; 4 bytes @ 0x34
   983  0054                     	ds	2
   984  0056                     vfpfcnvrt@ll:	
   985                           
   986                           ; 8 bytes @ 0x36
   987  0056                     	ds	2
   988  0058                     ??___fltol:	
   989                           
   990                           ; 1 bytes @ 0x38
   991  0058                     	ds	5
   992  005D                     ___fltol@sign1:	
   993                           
   994                           ; 1 bytes @ 0x3D
   995  005D                     	ds	1
   996  005E                     ___fltol@exp1:	
   997  005E                     vfpfcnvrt@done:	
   998                           ; 1 bytes @ 0x3E
   999                           
  1000                           
  1001                           ; 2 bytes @ 0x3E
  1002  005E                     	ds	2
  1003  0060                     _vfpfcnvrt$524:	
  1004                           
  1005                           ; 2 bytes @ 0x40
  1006  0060                     	ds	2
  1007  0062                     vfpfcnvrt@fp:	
  1008                           
  1009                           ; 1 bytes @ 0x42
  1010  0062                     	ds	1
  1011  0063                     ?_vfprintf:	
  1012  0063                     vfprintf@fmt:	
  1013                           ; 2 bytes @ 0x43
  1014                           
  1015                           
  1016                           ; 2 bytes @ 0x43
  1017  0063                     	ds	2
  1018  0065                     vfprintf@ap:	
  1019                           
  1020                           ; 1 bytes @ 0x45
  1021  0065                     	ds	1
  1022  0066                     ??_vfprintf:	
  1023                           
  1024                           ; 1 bytes @ 0x46
  1025  0066                     	ds	2
  1026  0068                     vfprintf@fp:	
  1027                           
  1028                           ; 1 bytes @ 0x48
  1029  0068                     	ds	1
  1030  0069                     vfprintf@cfmt:	
  1031                           
  1032                           ; 2 bytes @ 0x49
  1033  0069                     	ds	2
  1034  006B                     ?_sprintf:	
  1035  006B                     sprintf@fmt:	
  1036                           ; 2 bytes @ 0x4B
  1037                           
  1038                           
  1039                           ; 2 bytes @ 0x4B
  1040  006B                     	ds	4
  1041                           
  1042                           	psect	maintext
  1043  00A6                     __pmaintext:	
  1044 ;;
  1045 ;;Main: autosize = 0, tempsize = 3, incstack = 0, save=0
  1046 ;;
  1047 ;; *************** function _main *****************
  1048 ;; Defined at:
  1049 ;;		line 7 in file "main.c"
  1050 ;; Parameters:    Size  Location     Type
  1051 ;;		None
  1052 ;; Auto vars:     Size  Location     Type
  1053 ;;  buffer1        16   12[BANK1 ] unsigned char [16]
  1054 ;;  volt            4   32[BANK1 ] float 
  1055 ;;  temp            4    0        float 
  1056 ;;  perc            2   40[BANK1 ] int 
  1057 ;;  adc             2   38[BANK1 ] int 
  1058 ;;  numLamps        2   36[BANK1 ] int 
  1059 ;; Return value:  Size  Location     Type
  1060 ;;                  1    wreg      void 
  1061 ;; Registers used:
  1062 ;;		wreg, fsr0l, fsr0h, fsr1l, fsr1h, status,2, status,0, pclath, cstack
  1063 ;; Tracked objects:
  1064 ;;		On entry : B1F/0
  1065 ;;		On exit  : 0/0
  1066 ;;		Unchanged: 0/0
  1067 ;; Data sizes:     COMMON   BANK0   BANK1   BANK2   BANK3   BANK4   BANK5   BANK6   BANK7   BANK8   BANK9  BANK10  BANK1
      +1  BANK12
  1068 ;;      Params:         0       0       0       0       0       0       0       0       0       0       0       0       
      +0       0
  1069 ;;      Locals:         0       0      30       0       0       0       0       0       0       0       0       0       
      +0       0
  1070 ;;      Temps:          0       0       3       0       0       0       0       0       0       0       0       0       
      +0       0
  1071 ;;      Totals:         0       0      33       0       0       0       0       0       0       0       0       0       
      +0       0
  1072 ;;Total ram usage:       33 bytes
  1073 ;; Hardware stack levels required when called:    8
  1074 ;; This function calls:
  1075 ;;		_Lcd_Cmd
  1076 ;;		_Lcd_Init
  1077 ;;		_Lcd_Out2
  1078 ;;		___fldiv
  1079 ;;		___flmul
  1080 ;;		___fltol
  1081 ;;		___xxtofl
  1082 ;;		_sprintf
  1083 ;; This function is called by:
  1084 ;;		Startup code after reset
  1085 ;; This function uses a non-reentrant model
  1086 ;;
  1087                           
  1088                           
  1089                           ;psect for function _main
  1090  00A6                     _main:	
  1091  00A6                     l2823:	
  1092                           ;incstack = 0
  1093                           ; Regs used in _main: [wreg-fsr1h+status,2+status,0+pclath+cstack]
  1094                           
  1095                           
  1096                           ;main.c: 9:     int perc = 0;
  1097  00A6  0021               	movlb	1	; select bank1
  1098  00A7  01C8               	clrf	main@perc^(0+128)
  1099  00A8  01C9               	clrf	(main@perc+1)^(0+128)
  1100                           
  1101                           ;main.c: 10:     int numLamps = 0;
  1102  00A9  01C4               	clrf	main@numLamps^(0+128)
  1103  00AA  01C5               	clrf	(main@numLamps+1)^(0+128)
  1104  00AB                     l2825:	
  1105                           
  1106                           ;main.c: 11:     float volt,temp;;main.c: 12:     unsigned char buffer1[16];;main.c: 14:
      +                               OSCCONbits.IRCF=0b1110;
  1107  00AB  0819               	movf	25,w	;volatile
  1108  00AC  3987               	andlw	-121
  1109  00AD  3870               	iorlw	112
  1110  00AE  0099               	movwf	25	;volatile
  1111  00AF                     l2827:	
  1112                           
  1113                           ;main.c: 15:     OSCCONbits.SCS=0b00;
  1114  00AF  30FC               	movlw	-4
  1115  00B0  0599               	andwf	25,f	;volatile
  1116  00B1                     l2829:	
  1117                           
  1118                           ;main.c: 17:     ANSELA=0b00100000;
  1119  00B1  3020               	movlw	32
  1120  00B2  0023               	movlb	3	; select bank3
  1121  00B3  008C               	movwf	12	;volatile
  1122  00B4                     l2831:	
  1123                           
  1124                           ;main.c: 20:     TRISA=0b00100000;
  1125  00B4  3020               	movlw	32
  1126  00B5  0021               	movlb	1	; select bank1
  1127  00B6  008C               	movwf	12	;volatile
  1128  00B7                     l2833:	
  1129                           
  1130                           ;main.c: 23:     ADCON0bits.CHS=4;
  1131  00B7  081D               	movf	29,w	;volatile
  1132  00B8  3983               	andlw	-125
  1133  00B9  3810               	iorlw	16
  1134  00BA  009D               	movwf	29	;volatile
  1135  00BB                     l2835:	
  1136                           
  1137                           ;main.c: 24:     ADCON1bits.ADNREF=0;
  1138  00BB  111E               	bcf	30,2	;volatile
  1139  00BC                     l2837:	
  1140                           
  1141                           ;main.c: 25:     ADCON1bits.ADPREF=0;
  1142  00BC  30FC               	movlw	-4
  1143  00BD  059E               	andwf	30,f	;volatile
  1144  00BE                     l2839:	
  1145                           
  1146                           ;main.c: 26:     ADCON1bits.ADCS=0b111;
  1147  00BE  3070               	movlw	112
  1148  00BF  049E               	iorwf	30,f	;volatile
  1149  00C0                     l2841:	
  1150                           
  1151                           ;main.c: 27:     ADCON1bits.ADFM=0b1;
  1152  00C0  179E               	bsf	30,7	;volatile
  1153  00C1                     l2843:	
  1154                           
  1155                           ;main.c: 28:     ADCON0bits.ADON=1;
  1156  00C1  141D               	bsf	29,0	;volatile
  1157  00C2                     l2845:	
  1158                           
  1159                           ;main.c: 30:     Lcd_Init();
  1160  00C2  318A  22AF  3180   	fcall	_Lcd_Init
  1161  00C5                     l2847:	
  1162                           
  1163                           ;main.c: 31:     Lcd_Cmd(1);
  1164  00C5  3001               	movlw	1
  1165  00C6  318A  2216  3180   	fcall	_Lcd_Cmd
  1166  00C9                     l2849:	
  1167                           
  1168                           ;main.c: 32:     Lcd_Cmd(12);
  1169  00C9  300C               	movlw	12
  1170  00CA  318A  2216  3180   	fcall	_Lcd_Cmd
  1171  00CD                     l2851:	
  1172                           
  1173                           ;main.c: 33:     _delay((unsigned long)((100)*(32000000/4000.0)));
  1174  00CD  3005               	movlw	5
  1175  00CE  0021               	movlb	1	; select bank1
  1176  00CF  00AA               	movwf	(??_main^(0+128)+1)
  1177  00D0  300F               	movlw	15
  1178  00D1  00A9               	movwf	??_main^(0+128)
  1179  00D2  30F1               	movlw	241
  1180  00D3                     u3557:	
  1181  00D3  0B89               	decfsz	9,f
  1182  00D4  28D3               	goto	u3557
  1183  00D5  0BA9               	decfsz	??_main^(0+128),f
  1184  00D6  28D3               	goto	u3557
  1185  00D7  0BAA               	decfsz	(??_main^(0+128)+1),f
  1186  00D8  28D3               	goto	u3557
  1187  00D9                     l2853:	
  1188                           
  1189                           ;main.c: 35:         ADCON0bits.GO=1;
  1190  00D9  0021               	movlb	1	; select bank1
  1191  00DA  149D               	bsf	29,1	;volatile
  1192  00DB                     l71:	
  1193                           ;main.c: 36:         while(GO);
  1194                           
  1195  00DB  189D               	btfsc	29,1	;volatile
  1196  00DC  28DE               	goto	u3501
  1197  00DD  28DF               	goto	u3500
  1198  00DE                     u3501:	
  1199  00DE  28DB               	goto	l71
  1200  00DF                     u3500:	
  1201  00DF                     l2855:	
  1202                           
  1203                           ;main.c: 37:         adc=ADRESH;
  1204  00DF  081C               	movf	28,w	;volatile
  1205  00E0  00A9               	movwf	??_main^(0+128)
  1206  00E1  01AA               	clrf	(??_main^(0+128)+1)
  1207  00E2  0829               	movf	??_main^(0+128),w
  1208  00E3  00C6               	movwf	main@adc^(0+128)
  1209  00E4  082A               	movf	(??_main+1)^(0+128),w
  1210  00E5  00C7               	movwf	(main@adc+1)^(0+128)
  1211                           
  1212                           ;main.c: 38:         adc=adc<<8;
  1213  00E6  0847               	movf	(main@adc+1)^(0+128),w
  1214  00E7  00AA               	movwf	(??_main^(0+128)+1)
  1215  00E8  0846               	movf	main@adc^(0+128),w
  1216  00E9  00A9               	movwf	??_main^(0+128)
  1217  00EA  0829               	movf	??_main^(0+128),w
  1218  00EB  00AA               	movwf	(??_main^(0+128)+1)
  1219  00EC  01A9               	clrf	??_main^(0+128)
  1220  00ED  0829               	movf	??_main^(0+128),w
  1221  00EE  00C6               	movwf	main@adc^(0+128)
  1222  00EF  082A               	movf	(??_main+1)^(0+128),w
  1223  00F0  00C7               	movwf	(main@adc+1)^(0+128)
  1224                           
  1225                           ;main.c: 39:         adc=adc+ADRESL;
  1226  00F1  081B               	movf	27,w	;volatile
  1227  00F2  0746               	addwf	main@adc^(0+128),w
  1228  00F3  00A9               	movwf	??_main^(0+128)
  1229  00F4  0847               	movf	(main@adc+1)^(0+128),w
  1230  00F5  1803               	skipnc
  1231  00F6  0A47               	incf	(main@adc+1)^(0+128),w
  1232  00F7  00AA               	movwf	(??_main^(0+128)+1)
  1233  00F8  0829               	movf	??_main^(0+128),w
  1234  00F9  00C6               	movwf	main@adc^(0+128)
  1235  00FA  082A               	movf	(??_main+1)^(0+128),w
  1236  00FB  00C7               	movwf	(main@adc+1)^(0+128)
  1237  00FC                     l2857:	
  1238                           
  1239                           ;main.c: 40:         perc = (adc*100.0)/(1024.0);
  1240  00FC  0846               	movf	main@adc^(0+128),w
  1241  00FD  00F0               	movwf	___xxtofl@val
  1242  00FE  0847               	movf	(main@adc+1)^(0+128),w
  1243  00FF  00F1               	movwf	___xxtofl@val+1
  1244  0100  0D89               	rlf	9,f
  1245  0101  3B89               	subwfb	9,f
  1246  0102  0989               	comf	9,f
  1247  0103  00F2               	movwf	___xxtofl@val+2
  1248  0104  00F3               	movwf	___xxtofl@val+3
  1249  0105  3001               	movlw	1
  1250  0106  318B  234A  3180   	fcall	___xxtofl
  1251  0109  0873               	movf	?___xxtofl+3,w
  1252  010A  0020               	movlb	0	; select bank0
  1253  010B  00A7               	movwf	___flmul@a+3
  1254  010C  0872               	movf	?___xxtofl+2,w
  1255  010D  00A6               	movwf	___flmul@a+2
  1256  010E  0871               	movf	?___xxtofl+1,w
  1257  010F  00A5               	movwf	___flmul@a+1
  1258  0110  0870               	movf	?___xxtofl,w
  1259  0111  00A4               	movwf	___flmul@a
  1260  0112  3042               	movlw	66
  1261  0113  00A3               	movwf	___flmul@b+3
  1262  0114  30C8               	movlw	200
  1263  0115  00A2               	movwf	___flmul@b+2
  1264  0116  3000               	movlw	0
  1265  0117  00A1               	movwf	___flmul@b+1
  1266  0118  3000               	movlw	0
  1267  0119  00A0               	movwf	___flmul@b
  1268  011A  3185  2596  3180   	fcall	___flmul
  1269  011D  0020               	movlb	0	; select bank0
  1270  011E  0823               	movf	?___flmul+3,w
  1271  011F  00C1               	movwf	___fldiv@b+3
  1272  0120  0822               	movf	?___flmul+2,w
  1273  0121  00C0               	movwf	___fldiv@b+2
  1274  0122  0821               	movf	?___flmul+1,w
  1275  0123  00BF               	movwf	___fldiv@b+1
  1276  0124  0820               	movf	?___flmul,w
  1277  0125  00BE               	movwf	___fldiv@b
  1278  0126  3044               	movlw	68
  1279  0127  00BD               	movwf	___fldiv@a+3
  1280  0128  3080               	movlw	128
  1281  0129  00BC               	movwf	___fldiv@a+2
  1282  012A  3000               	movlw	0
  1283  012B  00BB               	movwf	___fldiv@a+1
  1284  012C  3000               	movlw	0
  1285  012D  00BA               	movwf	___fldiv@a
  1286  012E  3183  23E2  3180   	fcall	___fldiv
  1287  0131  0020               	movlb	0	; select bank0
  1288  0132  083D               	movf	?___fldiv+3,w
  1289  0133  00D7               	movwf	___fltol@f1+3
  1290  0134  083C               	movf	?___fldiv+2,w
  1291  0135  00D6               	movwf	___fltol@f1+2
  1292  0136  083B               	movf	?___fldiv+1,w
  1293  0137  00D5               	movwf	___fltol@f1+1
  1294  0138  083A               	movf	?___fldiv,w
  1295  0139  00D4               	movwf	___fltol@f1
  1296  013A  3189  21A1  3180   	fcall	___fltol
  1297  013D  0020               	movlb	0	; select bank0
  1298  013E  0855               	movf	?___fltol+1,w
  1299  013F  0021               	movlb	1	; select bank1
  1300  0140  00C9               	movwf	(main@perc+1)^(0+128)
  1301  0141  0020               	movlb	0	; select bank0
  1302  0142  0854               	movf	?___fltol,w
  1303  0143  0021               	movlb	1	; select bank1
  1304  0144  00C8               	movwf	main@perc^(0+128)
  1305  0145                     l2859:	
  1306                           
  1307                           ;main.c: 41:         volt=adc*5.0/1024.0;
  1308  0145  3044               	movlw	68
  1309  0146  0020               	movlb	0	; select bank0
  1310  0147  00BD               	movwf	___fldiv@a+3
  1311  0148  3080               	movlw	128
  1312  0149  00BC               	movwf	___fldiv@a+2
  1313  014A  3000               	movlw	0
  1314  014B  00BB               	movwf	___fldiv@a+1
  1315  014C  3000               	movlw	0
  1316  014D  00BA               	movwf	___fldiv@a
  1317  014E  3040               	movlw	64
  1318  014F  00A3               	movwf	___flmul@b+3
  1319  0150  30A0               	movlw	160
  1320  0151  00A2               	movwf	___flmul@b+2
  1321  0152  3000               	movlw	0
  1322  0153  00A1               	movwf	___flmul@b+1
  1323  0154  3000               	movlw	0
  1324  0155  00A0               	movwf	___flmul@b
  1325  0156  0021               	movlb	1	; select bank1
  1326  0157  0846               	movf	main@adc^(0+128),w
  1327  0158  00F0               	movwf	___xxtofl@val
  1328  0159  0847               	movf	(main@adc+1)^(0+128),w
  1329  015A  00F1               	movwf	___xxtofl@val+1
  1330  015B  0D89               	rlf	9,f
  1331  015C  3B89               	subwfb	9,f
  1332  015D  0989               	comf	9,f
  1333  015E  00F2               	movwf	___xxtofl@val+2
  1334  015F  00F3               	movwf	___xxtofl@val+3
  1335  0160  3001               	movlw	1
  1336  0161  318B  234A  3180   	fcall	___xxtofl
  1337  0164  0873               	movf	?___xxtofl+3,w
  1338  0165  0020               	movlb	0	; select bank0
  1339  0166  00A7               	movwf	___flmul@a+3
  1340  0167  0872               	movf	?___xxtofl+2,w
  1341  0168  00A6               	movwf	___flmul@a+2
  1342  0169  0871               	movf	?___xxtofl+1,w
  1343  016A  00A5               	movwf	___flmul@a+1
  1344  016B  0870               	movf	?___xxtofl,w
  1345  016C  00A4               	movwf	___flmul@a
  1346  016D  3185  2596  3180   	fcall	___flmul
  1347  0170  0020               	movlb	0	; select bank0
  1348  0171  0823               	movf	?___flmul+3,w
  1349  0172  00C1               	movwf	___fldiv@b+3
  1350  0173  0822               	movf	?___flmul+2,w
  1351  0174  00C0               	movwf	___fldiv@b+2
  1352  0175  0821               	movf	?___flmul+1,w
  1353  0176  00BF               	movwf	___fldiv@b+1
  1354  0177  0820               	movf	?___flmul,w
  1355  0178  00BE               	movwf	___fldiv@b
  1356  0179  3183  23E2  3180   	fcall	___fldiv
  1357  017C  0020               	movlb	0	; select bank0
  1358  017D  083D               	movf	?___fldiv+3,w
  1359  017E  0021               	movlb	1	; select bank1
  1360  017F  00C3               	movwf	(main@volt+3)^(0+128)
  1361  0180  0020               	movlb	0	; select bank0
  1362  0181  083C               	movf	?___fldiv+2,w
  1363  0182  0021               	movlb	1	; select bank1
  1364  0183  00C2               	movwf	(main@volt+2)^(0+128)
  1365  0184  0020               	movlb	0	; select bank0
  1366  0185  083B               	movf	?___fldiv+1,w
  1367  0186  0021               	movlb	1	; select bank1
  1368  0187  00C1               	movwf	(main@volt+1)^(0+128)
  1369  0188  0020               	movlb	0	; select bank0
  1370  0189  083A               	movf	?___fldiv,w
  1371  018A  0021               	movlb	1	; select bank1
  1372  018B  00C0               	movwf	main@volt^(0+128)
  1373                           
  1374                           ;main.c: 42:         if(perc<=20)
  1375  018C  0849               	movf	(main@perc+1)^(0+128),w
  1376  018D  3A80               	xorlw	128
  1377  018E  00A9               	movwf	??_main^(0+128)
  1378  018F  3080               	movlw	128
  1379  0190  0229               	subwf	??_main^(0+128),w
  1380  0191  1D03               	skipz
  1381  0192  2995               	goto	u3515
  1382  0193  3015               	movlw	21
  1383  0194  0248               	subwf	main@perc^(0+128),w
  1384  0195                     u3515:	
  1385  0195  1803               	skipnc
  1386  0196  2998               	goto	u3511
  1387  0197  2999               	goto	u3510
  1388  0198                     u3511:	
  1389  0198  299F               	goto	l2863
  1390  0199                     u3510:	
  1391  0199                     l2861:	
  1392                           
  1393                           ;main.c: 43:         {;main.c: 44:             numLamps = 4;
  1394  0199  3004               	movlw	4
  1395  019A  0021               	movlb	1	; select bank1
  1396  019B  00C4               	movwf	main@numLamps^(0+128)
  1397  019C  3000               	movlw	0
  1398  019D  00C5               	movwf	(main@numLamps^(0+128)+1)
  1399                           
  1400                           ;main.c: 45:         }
  1401  019E  29DB               	goto	l2875
  1402  019F                     l2863:	
  1403  019F  0021               	movlb	1	; select bank1
  1404  01A0  0849               	movf	(main@perc+1)^(0+128),w
  1405  01A1  3A80               	xorlw	128
  1406  01A2  00A9               	movwf	??_main^(0+128)
  1407  01A3  3080               	movlw	128
  1408  01A4  0229               	subwf	??_main^(0+128),w
  1409  01A5  1D03               	skipz
  1410  01A6  29A9               	goto	u3525
  1411  01A7  3029               	movlw	41
  1412  01A8  0248               	subwf	main@perc^(0+128),w
  1413  01A9                     u3525:	
  1414  01A9  1803               	skipnc
  1415  01AA  29AC               	goto	u3521
  1416  01AB  29AD               	goto	u3520
  1417  01AC                     u3521:	
  1418  01AC  29B3               	goto	l2867
  1419  01AD                     u3520:	
  1420  01AD                     l2865:	
  1421                           
  1422                           ;main.c: 47:         {;main.c: 48:             numLamps = 3;
  1423  01AD  3003               	movlw	3
  1424  01AE  0021               	movlb	1	; select bank1
  1425  01AF  00C4               	movwf	main@numLamps^(0+128)
  1426  01B0  3000               	movlw	0
  1427  01B1  00C5               	movwf	(main@numLamps^(0+128)+1)
  1428                           
  1429                           ;main.c: 49:         }
  1430  01B2  29DB               	goto	l2875
  1431  01B3                     l2867:	
  1432  01B3  0021               	movlb	1	; select bank1
  1433  01B4  0849               	movf	(main@perc+1)^(0+128),w
  1434  01B5  3A80               	xorlw	128
  1435  01B6  00A9               	movwf	??_main^(0+128)
  1436  01B7  3080               	movlw	128
  1437  01B8  0229               	subwf	??_main^(0+128),w
  1438  01B9  1D03               	skipz
  1439  01BA  29BD               	goto	u3535
  1440  01BB  303D               	movlw	61
  1441  01BC  0248               	subwf	main@perc^(0+128),w
  1442  01BD                     u3535:	
  1443  01BD  1803               	skipnc
  1444  01BE  29C0               	goto	u3531
  1445  01BF  29C1               	goto	u3530
  1446  01C0                     u3531:	
  1447  01C0  29C7               	goto	l2871
  1448  01C1                     u3530:	
  1449  01C1                     l2869:	
  1450                           
  1451                           ;main.c: 51:         {;main.c: 52:             numLamps = 2;
  1452  01C1  3002               	movlw	2
  1453  01C2  0021               	movlb	1	; select bank1
  1454  01C3  00C4               	movwf	main@numLamps^(0+128)
  1455  01C4  3000               	movlw	0
  1456  01C5  00C5               	movwf	(main@numLamps^(0+128)+1)
  1457                           
  1458                           ;main.c: 53:         }else if(perc<=80)
  1459  01C6  29DB               	goto	l2875
  1460  01C7                     l2871:	
  1461  01C7  0021               	movlb	1	; select bank1
  1462  01C8  0849               	movf	(main@perc+1)^(0+128),w
  1463  01C9  3A80               	xorlw	128
  1464  01CA  00A9               	movwf	??_main^(0+128)
  1465  01CB  3080               	movlw	128
  1466  01CC  0229               	subwf	??_main^(0+128),w
  1467  01CD  1D03               	skipz
  1468  01CE  29D1               	goto	u3545
  1469  01CF  3051               	movlw	81
  1470  01D0  0248               	subwf	main@perc^(0+128),w
  1471  01D1                     u3545:	
  1472  01D1  1803               	skipnc
  1473  01D2  29D4               	goto	u3541
  1474  01D3  29D5               	goto	u3540
  1475  01D4                     u3541:	
  1476  01D4  29DB               	goto	l77
  1477  01D5                     u3540:	
  1478  01D5                     l2873:	
  1479                           
  1480                           ;main.c: 54:         {;main.c: 55:             numLamps = 1;
  1481  01D5  3001               	movlw	1
  1482  01D6  0021               	movlb	1	; select bank1
  1483  01D7  00C4               	movwf	main@numLamps^(0+128)
  1484  01D8  3000               	movlw	0
  1485  01D9  00C5               	movwf	(main@numLamps^(0+128)+1)
  1486  01DA  29DB               	goto	l2875
  1487  01DB                     l77:	
  1488  01DB                     l2875:	
  1489                           
  1490                           ;main.c: 58:         sprintf(buffer1,"Porcentaje %04d", perc);
  1491  01DB  3000               	movlw	low (STR_1| (0+32768))
  1492  01DC  0020               	movlb	0	; select bank0
  1493  01DD  00EB               	movwf	sprintf@fmt
  1494  01DE  3098               	movlw	high (STR_1| (0+32768))
  1495  01DF  00EC               	movwf	sprintf@fmt+1
  1496  01E0  0021               	movlb	1	; select bank1
  1497  01E1  0849               	movf	(main@perc+1)^(0+128),w
  1498  01E2  0020               	movlb	0	; select bank0
  1499  01E3  00EE               	movwf	?_sprintf+3
  1500  01E4  0021               	movlb	1	; select bank1
  1501  01E5  0848               	movf	main@perc^(0+128),w
  1502  01E6  0020               	movlb	0	; select bank0
  1503  01E7  00ED               	movwf	?_sprintf+2
  1504  01E8  30AC               	movlw	(low (main@buffer1| 0))& (0+255)
  1505  01E9  3188  2032  3180   	fcall	_sprintf
  1506  01EC                     l2877:	
  1507                           
  1508                           ;main.c: 59:         Lcd_Out2(1, 1, buffer1);
  1509  01EC  01F3               	clrf	Lcd_Out2@x
  1510  01ED  0AF3               	incf	Lcd_Out2@x,f
  1511  01EE  30AC               	movlw	(low (main@buffer1| 0))& (0+255)
  1512  01EF  0021               	movlb	1	; select bank1
  1513  01F0  00A9               	movwf	??_main^(0+128)
  1514  01F1  0829               	movf	??_main^(0+128),w
  1515  01F2  00F4               	movwf	Lcd_Out2@buffer
  1516  01F3  3001               	movlw	1
  1517  01F4  3188  20B0  3180   	fcall	_Lcd_Out2
  1518  01F7                     l2879:	
  1519  01F7  3042               	movlw	66
  1520  01F8  0020               	movlb	0	; select bank0
  1521  01F9  00A3               	movwf	___flmul@b+3
  1522  01FA  30C8               	movlw	200
  1523  01FB  00A2               	movwf	___flmul@b+2
  1524  01FC  3000               	movlw	0
  1525  01FD  00A1               	movwf	___flmul@b+1
  1526  01FE  3000               	movlw	0
  1527  01FF  00A0               	movwf	___flmul@b
  1528  0200  0021               	movlb	1	; select bank1
  1529  0201  0843               	movf	(main@volt+3)^(0+128),w
  1530  0202  0020               	movlb	0	; select bank0
  1531  0203  00A7               	movwf	___flmul@a+3
  1532  0204  0021               	movlb	1	; select bank1
  1533  0205  0842               	movf	(main@volt+2)^(0+128),w
  1534  0206  0020               	movlb	0	; select bank0
  1535  0207  00A6               	movwf	___flmul@a+2
  1536  0208  0021               	movlb	1	; select bank1
  1537  0209  0841               	movf	(main@volt+1)^(0+128),w
  1538  020A  0020               	movlb	0	; select bank0
  1539  020B  00A5               	movwf	___flmul@a+1
  1540  020C  0021               	movlb	1	; select bank1
  1541  020D  0840               	movf	main@volt^(0+128),w
  1542  020E  0020               	movlb	0	; select bank0
  1543  020F  00A4               	movwf	___flmul@a
  1544  0210  3185  2596  3180   	fcall	___flmul
  1545  0213                     l2881:	
  1546                           
  1547                           ;main.c: 61:         sprintf(buffer1,"# Lamps On %04d",numLamps);
  1548  0213  3010               	movlw	low (STR_2| (0+32768))
  1549  0214  0020               	movlb	0	; select bank0
  1550  0215  00EB               	movwf	sprintf@fmt
  1551  0216  3098               	movlw	high (STR_2| (0+32768))
  1552  0217  00EC               	movwf	sprintf@fmt+1
  1553  0218  0021               	movlb	1	; select bank1
  1554  0219  0845               	movf	(main@numLamps+1)^(0+128),w
  1555  021A  0020               	movlb	0	; select bank0
  1556  021B  00EE               	movwf	?_sprintf+3
  1557  021C  0021               	movlb	1	; select bank1
  1558  021D  0844               	movf	main@numLamps^(0+128),w
  1559  021E  0020               	movlb	0	; select bank0
  1560  021F  00ED               	movwf	?_sprintf+2
  1561  0220  30AC               	movlw	(low (main@buffer1| 0))& (0+255)
  1562  0221  3188  2032  3180   	fcall	_sprintf
  1563  0224                     l2883:	
  1564                           
  1565                           ;main.c: 62:         Lcd_Out2(2, 1, buffer1);
  1566  0224  01F3               	clrf	Lcd_Out2@x
  1567  0225  0AF3               	incf	Lcd_Out2@x,f
  1568  0226  30AC               	movlw	(low (main@buffer1| 0))& (0+255)
  1569  0227  0021               	movlb	1	; select bank1
  1570  0228  00A9               	movwf	??_main^(0+128)
  1571  0229  0829               	movf	??_main^(0+128),w
  1572  022A  00F4               	movwf	Lcd_Out2@buffer
  1573  022B  3002               	movlw	2
  1574  022C  3188  20B0  3180   	fcall	_Lcd_Out2
  1575  022F                     l2885:	
  1576                           
  1577                           ;main.c: 63:         _delay((unsigned long)((300)*(32000000/4000.0)));
  1578  022F  300D               	movlw	13
  1579  0230  0021               	movlb	1	; select bank1
  1580  0231  00AA               	movwf	(??_main^(0+128)+1)
  1581  0232  302D               	movlw	45
  1582  0233  00A9               	movwf	??_main^(0+128)
  1583  0234  30D7               	movlw	215
  1584  0235                     u3567:	
  1585  0235  0B89               	decfsz	9,f
  1586  0236  2A35               	goto	u3567
  1587  0237  0BA9               	decfsz	??_main^(0+128),f
  1588  0238  2A35               	goto	u3567
  1589  0239  0BAA               	decfsz	(??_main^(0+128)+1),f
  1590  023A  2A35               	goto	u3567
  1591  023B  3200               	nop2
  1592  023C  28D9               	goto	l2853
  1593  023D  3180  2802         	ljmp	start
  1594  023F                     __end_of_main:	
  1595                           
  1596                           	psect	text1
  1597  0832                     __ptext1:	
  1598 ;; *************** function _sprintf *****************
  1599 ;; Defined at:
  1600 ;;		line 9 in file "C:\Program Files (x86)\Microchip\xc8\v2.10\pic\sources\c99\common\nf_sprintf.c"
  1601 ;; Parameters:    Size  Location     Type
  1602 ;;  s               1    wreg     PTR unsigned char 
  1603 ;;		 -> main@buffer1(16), 
  1604 ;;  fmt             2   75[BANK0 ] PTR const unsigned char 
  1605 ;;		 -> STR_2(16), STR_1(16), 
  1606 ;; Auto vars:     Size  Location     Type
  1607 ;;  s               1    3[BANK1 ] PTR unsigned char 
  1608 ;;		 -> main@buffer1(16), 
  1609 ;;  f               5    4[BANK1 ] struct _IO_FILE
  1610 ;;  ret             2    0        int 
  1611 ;;  ap              1    2[BANK1 ] PTR void [1]
  1612 ;;		 -> ?_sprintf(2), 
  1613 ;; Return value:  Size  Location     Type
  1614 ;;                  2   75[BANK0 ] int 
  1615 ;; Registers used:
  1616 ;;		wreg, fsr0l, fsr0h, fsr1l, fsr1h, status,2, status,0, pclath, cstack
  1617 ;; Tracked objects:
  1618 ;;		On entry : 0/0
  1619 ;;		On exit  : 0/0
  1620 ;;		Unchanged: 0/0
  1621 ;; Data sizes:     COMMON   BANK0   BANK1   BANK2   BANK3   BANK4   BANK5   BANK6   BANK7   BANK8   BANK9  BANK10  BANK1
      +1  BANK12
  1622 ;;      Params:         0       4       0       0       0       0       0       0       0       0       0       0       
      +0       0
  1623 ;;      Locals:         0       0       9       0       0       0       0       0       0       0       0       0       
      +0       0
  1624 ;;      Temps:          1       0       0       0       0       0       0       0       0       0       0       0       
      +0       0
  1625 ;;      Totals:         1       4       9       0       0       0       0       0       0       0       0       0       
      +0       0
  1626 ;;Total ram usage:       14 bytes
  1627 ;; Hardware stack levels used:    1
  1628 ;; Hardware stack levels required when called:    7
  1629 ;; This function calls:
  1630 ;;		_vfprintf
  1631 ;; This function is called by:
  1632 ;;		_main
  1633 ;; This function uses a non-reentrant model
  1634 ;;
  1635                           
  1636                           
  1637                           ;psect for function _sprintf
  1638  0832                     _sprintf:	
  1639                           
  1640                           ;incstack = 0
  1641                           ; Regs used in _sprintf: [wreg-fsr1h+status,2+status,0+pclath+cstack]
  1642                           ;sprintf@s stored from wreg
  1643  0832  0021               	movlb	1	; select bank1
  1644  0833  00A3               	movwf	sprintf@s^(0+128)
  1645  0834                     l2425:	
  1646  0834  306D               	movlw	(low ((?_sprintf| 0+2)))& (0+255)
  1647  0835  00FD               	movwf	??_sprintf
  1648  0836  087D               	movf	??_sprintf,w
  1649  0837  00A2               	movwf	sprintf@ap^(0+128)
  1650  0838  0823               	movf	sprintf@s^(0+128),w
  1651  0839  00FD               	movwf	??_sprintf
  1652  083A  087D               	movf	??_sprintf,w
  1653  083B  00A4               	movwf	sprintf@f^(0+128)
  1654  083C                     l2427:	
  1655  083C  01A5               	clrf	(sprintf@f^(0+128)+1)
  1656  083D  01A6               	clrf	((sprintf@f+1)^(0+128)+1)
  1657  083E                     l2429:	
  1658  083E  01A7               	clrf	(sprintf@f^(0+128)+3)
  1659  083F  01A8               	clrf	((sprintf@f+1)^(0+128)+3)
  1660  0840                     l2431:	
  1661  0840  0020               	movlb	0	; select bank0
  1662  0841  086C               	movf	sprintf@fmt+1,w
  1663  0842  00E4               	movwf	vfprintf@fmt+1
  1664  0843  086B               	movf	sprintf@fmt,w
  1665  0844  00E3               	movwf	vfprintf@fmt
  1666  0845  30A2               	movlw	(low (sprintf@ap| 0))& (0+255)
  1667  0846  00FD               	movwf	??_sprintf
  1668  0847  087D               	movf	??_sprintf,w
  1669  0848  00E5               	movwf	vfprintf@ap
  1670  0849  30A4               	movlw	(low (sprintf@f| 0))& (0+255)
  1671  084A  3188  207F  3188   	fcall	_vfprintf
  1672  084D                     l2433:	
  1673  084D  0021               	movlb	1	; select bank1
  1674  084E  0825               	movf	(sprintf@f^(0+128)+1),w
  1675  084F  0723               	addwf	sprintf@s^(0+128),w
  1676  0850  00FD               	movwf	??_sprintf
  1677  0851  087D               	movf	??_sprintf,w
  1678  0852  0086               	movwf	6
  1679  0853  0187               	clrf	7
  1680  0854  0181               	clrf	1
  1681  0855                     l860:	
  1682  0855  0008               	return
  1683  0856                     __end_of_sprintf:	
  1684                           
  1685                           	psect	text2
  1686  087F                     __ptext2:	
  1687 ;; *************** function _vfprintf *****************
  1688 ;; Defined at:
  1689 ;;		line 1368 in file "C:\Program Files (x86)\Microchip\xc8\v2.10\pic\sources\c99\common\doprnt.c"
  1690 ;; Parameters:    Size  Location     Type
  1691 ;;  fp              1    wreg     PTR struct _IO_FILE
  1692 ;;		 -> sprintf@f(5), 
  1693 ;;  fmt             2   67[BANK0 ] PTR const unsigned char 
  1694 ;;		 -> STR_2(16), STR_1(16), 
  1695 ;;  ap              1   69[BANK0 ] PTR PTR void 
  1696 ;;		 -> sprintf@ap(1), 
  1697 ;; Auto vars:     Size  Location     Type
  1698 ;;  fp              1   72[BANK0 ] PTR struct _IO_FILE
  1699 ;;		 -> sprintf@f(5), 
  1700 ;;  cfmt            2   73[BANK0 ] PTR unsigned char 
  1701 ;;		 -> STR_2(16), STR_1(16), 
  1702 ;; Return value:  Size  Location     Type
  1703 ;;                  2   67[BANK0 ] int 
  1704 ;; Registers used:
  1705 ;;		wreg, fsr0l, fsr0h, fsr1l, fsr1h, status,2, status,0, pclath, cstack
  1706 ;; Tracked objects:
  1707 ;;		On entry : 0/0
  1708 ;;		On exit  : 0/0
  1709 ;;		Unchanged: 0/0
  1710 ;; Data sizes:     COMMON   BANK0   BANK1   BANK2   BANK3   BANK4   BANK5   BANK6   BANK7   BANK8   BANK9  BANK10  BANK1
      +1  BANK12
  1711 ;;      Params:         0       3       0       0       0       0       0       0       0       0       0       0       
      +0       0
  1712 ;;      Locals:         0       3       0       0       0       0       0       0       0       0       0       0       
      +0       0
  1713 ;;      Temps:          0       2       0       0       0       0       0       0       0       0       0       0       
      +0       0
  1714 ;;      Totals:         0       8       0       0       0       0       0       0       0       0       0       0       
      +0       0
  1715 ;;Total ram usage:        8 bytes
  1716 ;; Hardware stack levels used:    1
  1717 ;; Hardware stack levels required when called:    6
  1718 ;; This function calls:
  1719 ;;		_vfpfcnvrt
  1720 ;; This function is called by:
  1721 ;;		_sprintf
  1722 ;; This function uses a non-reentrant model
  1723 ;;
  1724                           
  1725                           
  1726                           ;psect for function _vfprintf
  1727  087F                     _vfprintf:	
  1728                           
  1729                           ;incstack = 0
  1730                           ; Regs used in _vfprintf: [wreg-fsr1h+status,2+status,0+pclath+cstack]
  1731                           ;vfprintf@fp stored from wreg
  1732  087F  0020               	movlb	0	; select bank0
  1733  0880  00E8               	movwf	vfprintf@fp
  1734  0881                     l2323:	
  1735                           
  1736                           ;C:\Program Files (x86)\Microchip\xc8\v2.10\pic\sources\c99\common\doprnt.c: 1368: int v
      +                          fprintf(FILE *fp, const char *fmt, va_list ap);C:\Program Files (x86)\Microchip\xc8\v2.1
      +                          0\pic\sources\c99\common\doprnt.c: 1369: {;C:\Program Files (x86)\Microchip\xc8\v2.10\pi
      +                          c\sources\c99\common\doprnt.c: 1371:     char *cfmt;;C:\Program Files (x86)\Microchip\xc
      +                          8\v2.10\pic\sources\c99\common\doprnt.c: 1373:     cfmt = (char *)fmt;
  1737  0881  0864               	movf	vfprintf@fmt+1,w
  1738  0882  00EA               	movwf	vfprintf@cfmt+1
  1739  0883  0863               	movf	vfprintf@fmt,w
  1740  0884  00E9               	movwf	vfprintf@cfmt
  1741  0885                     l2325:	
  1742                           
  1743                           ;C:\Program Files (x86)\Microchip\xc8\v2.10\pic\sources\c99\common\doprnt.c: 1374:     n
      +                          out = 0;
  1744  0885  0021               	movlb	1	; select bank1
  1745  0886  01CA               	clrf	_nout^(0+128)
  1746  0887  01CB               	clrf	(_nout+1)^(0+128)
  1747                           
  1748                           ;C:\Program Files (x86)\Microchip\xc8\v2.10\pic\sources\c99\common\doprnt.c: 1375:     w
      +                          hile (*cfmt) {
  1749  0888  289D               	goto	l2329
  1750  0889                     l2327:	
  1751                           
  1752                           ;C:\Program Files (x86)\Microchip\xc8\v2.10\pic\sources\c99\common\doprnt.c: 1376:      
      +                             nout += vfpfcnvrt(fp, &cfmt, ap);
  1753  0889  3069               	movlw	(low (vfprintf@cfmt| 0))& (0+255)
  1754  088A  00E6               	movwf	??_vfprintf
  1755  088B  0866               	movf	??_vfprintf,w
  1756  088C  00CE               	movwf	vfpfcnvrt@fmt
  1757  088D  0865               	movf	vfprintf@ap,w
  1758  088E  00E7               	movwf	??_vfprintf+1
  1759  088F  0867               	movf	??_vfprintf+1,w
  1760  0890  00CF               	movwf	vfpfcnvrt@ap
  1761  0891  0868               	movf	vfprintf@fp,w
  1762  0892  3182  223F  3188   	fcall	_vfpfcnvrt
  1763  0895  0020               	movlb	0	; select bank0
  1764  0896  084E               	movf	?_vfpfcnvrt,w
  1765  0897  0021               	movlb	1	; select bank1
  1766  0898  07CA               	addwf	_nout^(0+128),f
  1767  0899  0020               	movlb	0	; select bank0
  1768  089A  084F               	movf	?_vfpfcnvrt+1,w
  1769  089B  0021               	movlb	1	; select bank1
  1770  089C  3DCB               	addwfc	(_nout+1)^(0+128),f
  1771  089D                     l2329:	
  1772                           
  1773                           ;C:\Program Files (x86)\Microchip\xc8\v2.10\pic\sources\c99\common\doprnt.c: 1375:     w
      +                          hile (*cfmt) {
  1774  089D  0020               	movlb	0	; select bank0
  1775  089E  0869               	movf	vfprintf@cfmt,w
  1776  089F  0084               	movwf	4
  1777  08A0  086A               	movf	vfprintf@cfmt+1,w
  1778  08A1  0085               	movwf	5
  1779  08A2  0012               	moviw fsr0++
  1780  08A3  1D03               	btfss	3,2
  1781  08A4  28A6               	goto	u2641
  1782  08A5  28A7               	goto	u2640
  1783  08A6                     u2641:	
  1784  08A6  2889               	goto	l2327
  1785  08A7                     u2640:	
  1786  08A7                     l2331:	
  1787                           
  1788                           ;C:\Program Files (x86)\Microchip\xc8\v2.10\pic\sources\c99\common\doprnt.c: 1378:     r
      +                          eturn nout;
  1789  08A7  0021               	movlb	1	; select bank1
  1790  08A8  084B               	movf	(_nout+1)^(0+128),w
  1791  08A9  0020               	movlb	0	; select bank0
  1792  08AA  00E4               	movwf	?_vfprintf+1
  1793  08AB  0021               	movlb	1	; select bank1
  1794  08AC  084A               	movf	_nout^(0+128),w
  1795  08AD  0020               	movlb	0	; select bank0
  1796  08AE  00E3               	movwf	?_vfprintf
  1797  08AF                     l327:	
  1798  08AF  0008               	return
  1799  08B0                     __end_of_vfprintf:	
  1800                           
  1801                           	psect	text3
  1802  023F                     __ptext3:	
  1803 ;; *************** function _vfpfcnvrt *****************
  1804 ;; Defined at:
  1805 ;;		line 670 in file "C:\Program Files (x86)\Microchip\xc8\v2.10\pic\sources\c99\common\doprnt.c"
  1806 ;; Parameters:    Size  Location     Type
  1807 ;;  fp              1    wreg     PTR struct _IO_FILE
  1808 ;;		 -> sprintf@f(5), 
  1809 ;;  fmt             1   46[BANK0 ] PTR PTR unsigned char 
  1810 ;;		 -> vfprintf@cfmt(2), 
  1811 ;;  ap              1   47[BANK0 ] PTR PTR void 
  1812 ;;		 -> sprintf@ap(1), 
  1813 ;; Auto vars:     Size  Location     Type
  1814 ;;  fp              1   66[BANK0 ] PTR struct _IO_FILE
  1815 ;;		 -> sprintf@f(5), 
  1816 ;;  ll              8   54[BANK0 ] long long 
  1817 ;;  llu             8    0        unsigned long long 
  1818 ;;  f               4    0        unsigned long long 
  1819 ;;  ct              3    0        unsigned char [3]
  1820 ;;  done            2   62[BANK0 ] int 
  1821 ;;  vp              2    0        PTR void 
  1822 ;;  i               2    0        int 
  1823 ;;  cp              2    0        PTR unsigned char 
  1824 ;;  c               1    0        unsigned char 
  1825 ;; Return value:  Size  Location     Type
  1826 ;;                  2   46[BANK0 ] int 
  1827 ;; Registers used:
  1828 ;;		wreg, fsr0l, fsr0h, fsr1l, fsr1h, status,2, status,0, pclath, cstack
  1829 ;; Tracked objects:
  1830 ;;		On entry : 0/0
  1831 ;;		On exit  : 0/0
  1832 ;;		Unchanged: 0/0
  1833 ;; Data sizes:     COMMON   BANK0   BANK1   BANK2   BANK3   BANK4   BANK5   BANK6   BANK7   BANK8   BANK9  BANK10  BANK1
      +1  BANK12
  1834 ;;      Params:         0       2       0       0       0       0       0       0       0       0       0       0       
      +0       0
  1835 ;;      Locals:         0      13       0       0       0       0       0       0       0       0       0       0       
      +0       0
  1836 ;;      Temps:          0       6       0       0       0       0       0       0       0       0       0       0       
      +0       0
  1837 ;;      Totals:         0      21       0       0       0       0       0       0       0       0       0       0       
      +0       0
  1838 ;;Total ram usage:       21 bytes
  1839 ;; Hardware stack levels used:    1
  1840 ;; Hardware stack levels required when called:    5
  1841 ;; This function calls:
  1842 ;;		_atoi
  1843 ;;		_dtoa
  1844 ;;		_fputc
  1845 ;;		_isdigit
  1846 ;; This function is called by:
  1847 ;;		_vfprintf
  1848 ;; This function uses a non-reentrant model
  1849 ;;
  1850                           
  1851                           
  1852                           ;psect for function _vfpfcnvrt
  1853  023F                     _vfpfcnvrt:	
  1854                           
  1855                           ;incstack = 0
  1856                           ; Regs used in _vfpfcnvrt: [wreg-fsr1h+status,2+status,0+pclath+cstack]
  1857                           ;vfpfcnvrt@fp stored from wreg
  1858  023F  0020               	movlb	0	; select bank0
  1859  0240  00E2               	movwf	vfpfcnvrt@fp
  1860  0241                     l2185:	
  1861                           
  1862                           ;C:\Program Files (x86)\Microchip\xc8\v2.10\pic\sources\c99\common\doprnt.c: 670: static
      +                           int vfpfcnvrt(FILE *fp, char *fmt[], va_list ap);C:\Program Files (x86)\Microchip\xc8\v
      +                          2.10\pic\sources\c99\common\doprnt.c: 671: {;C:\Program Files (x86)\Microchip\xc8\v2.10\
      +                          pic\sources\c99\common\doprnt.c: 672:     char c, *cp, ct[3];;C:\Program Files (x86)\Mic
      +                          rochip\xc8\v2.10\pic\sources\c99\common\doprnt.c: 673:     int done, i;;C:\Program Files
      +                           (x86)\Microchip\xc8\v2.10\pic\sources\c99\common\doprnt.c: 674:     long long ll;
  1863  0241  084E               	movf	vfpfcnvrt@fmt,w
  1864  0242  0086               	movwf	6
  1865  0243  0187               	clrf	7
  1866  0244  3F40               	moviw [0]fsr1
  1867  0245  00D0               	movwf	??_vfpfcnvrt
  1868  0246  3F41               	moviw [1]fsr1
  1869  0247  00D1               	movwf	??_vfpfcnvrt+1
  1870  0248  0850               	movf	??_vfpfcnvrt,w
  1871  0249  0084               	movwf	4
  1872  024A  0851               	movf	??_vfpfcnvrt+1,w
  1873  024B  0085               	movwf	5
  1874  024C  0012               	moviw fsr0++
  1875  024D  3A25               	xorlw	37
  1876  024E  1D03               	btfss	3,2
  1877  024F  2A51               	goto	u2411
  1878  0250  2A52               	goto	u2410
  1879  0251                     u2411:	
  1880  0251  2BBE               	goto	l2265
  1881  0252                     u2410:	
  1882  0252                     l2187:	
  1883                           
  1884                           ;C:\Program Files (x86)\Microchip\xc8\v2.10\pic\sources\c99\common\doprnt.c: 681:       
      +                            ++*fmt;
  1885  0252  084E               	movf	vfpfcnvrt@fmt,w
  1886  0253  0086               	movwf	6
  1887  0254  0187               	clrf	7
  1888  0255  3001               	movlw	1
  1889  0256  0781               	addwf	1,f
  1890  0257  3141               	addfsr 1,1
  1891  0258  1803               	skipnc
  1892  0259  0A81               	incf	1,f
  1893  025A                     l2189:	
  1894                           
  1895                           ;C:\Program Files (x86)\Microchip\xc8\v2.10\pic\sources\c99\common\doprnt.c: 683:       
      +                            flags = width = 0;
  1896  025A  0021               	movlb	1	; select bank1
  1897  025B  01CC               	clrf	_width^(0+128)
  1898  025C  01CD               	clrf	(_width+1)^(0+128)
  1899  025D  01D0               	clrf	_flags^(0+128)
  1900  025E  01D1               	clrf	(_flags+1)^(0+128)
  1901  025F                     l2191:	
  1902                           
  1903                           ;C:\Program Files (x86)\Microchip\xc8\v2.10\pic\sources\c99\common\doprnt.c: 684:       
      +                            prec = -1;
  1904  025F  30FF               	movlw	255
  1905  0260  00CE               	movwf	_prec^(0+128)
  1906  0261  30FF               	movlw	255
  1907  0262  00CF               	movwf	(_prec^(0+128)+1)
  1908  0263                     l2193:	
  1909                           
  1910                           ;C:\Program Files (x86)\Microchip\xc8\v2.10\pic\sources\c99\common\doprnt.c: 688:       
      +                            done = 0;
  1911  0263  0020               	movlb	0	; select bank0
  1912  0264  01DE               	clrf	vfpfcnvrt@done
  1913  0265  01DF               	clrf	vfpfcnvrt@done+1
  1914                           
  1915                           ;C:\Program Files (x86)\Microchip\xc8\v2.10\pic\sources\c99\common\doprnt.c: 689:       
      +                            while (!done) {
  1916  0266  2AA8               	goto	l2211
  1917  0267                     l298:	
  1918                           ;C:\Program Files (x86)\Microchip\xc8\v2.10\pic\sources\c99\common\doprnt.c: 691:       
      +                                    case '-' :
  1919                           
  1920                           
  1921                           ;C:\Program Files (x86)\Microchip\xc8\v2.10\pic\sources\c99\common\doprnt.c: 692:       
      +                                        flags |= (1 << 0);
  1922  0267  0021               	movlb	1	; select bank1
  1923  0268  1450               	bsf	_flags^(0+128),0
  1924  0269                     l2195:	
  1925                           
  1926                           ;C:\Program Files (x86)\Microchip\xc8\v2.10\pic\sources\c99\common\doprnt.c: 693:       
      +                                        ++*fmt;
  1927  0269  0020               	movlb	0	; select bank0
  1928  026A  084E               	movf	vfpfcnvrt@fmt,w
  1929  026B  0086               	movwf	6
  1930  026C  0187               	clrf	7
  1931  026D  3001               	movlw	1
  1932  026E  0781               	addwf	1,f
  1933  026F  3141               	addfsr 1,1
  1934  0270  1803               	skipnc
  1935  0271  0A81               	incf	1,f
  1936                           
  1937                           ;C:\Program Files (x86)\Microchip\xc8\v2.10\pic\sources\c99\common\doprnt.c: 694:       
      +                                        break;
  1938  0272  2AA8               	goto	l2211
  1939  0273                     l300:	
  1940                           ;C:\Program Files (x86)\Microchip\xc8\v2.10\pic\sources\c99\common\doprnt.c: 695:       
      +                                    case '0' :
  1941                           
  1942                           
  1943                           ;C:\Program Files (x86)\Microchip\xc8\v2.10\pic\sources\c99\common\doprnt.c: 696:       
      +                                        flags |= (1 << 1);
  1944  0273  0021               	movlb	1	; select bank1
  1945  0274  14D0               	bsf	_flags^(0+128),1
  1946  0275  2A69               	goto	l2195
  1947  0276                     l301:	
  1948                           ;C:\Program Files (x86)\Microchip\xc8\v2.10\pic\sources\c99\common\doprnt.c: 699:       
      +                                    case '+' :
  1949                           
  1950                           
  1951                           ;C:\Program Files (x86)\Microchip\xc8\v2.10\pic\sources\c99\common\doprnt.c: 700:       
      +                                        flags |= (1 << 2);
  1952  0276  0021               	movlb	1	; select bank1
  1953  0277  1550               	bsf	_flags^(0+128),2
  1954  0278  2A69               	goto	l2195
  1955  0279                     l302:	
  1956                           ;C:\Program Files (x86)\Microchip\xc8\v2.10\pic\sources\c99\common\doprnt.c: 703:       
      +                                    case ' ' :
  1957                           
  1958                           
  1959                           ;C:\Program Files (x86)\Microchip\xc8\v2.10\pic\sources\c99\common\doprnt.c: 704:       
      +                                        flags |= (1 << 3);
  1960  0279  0021               	movlb	1	; select bank1
  1961  027A  15D0               	bsf	_flags^(0+128),3
  1962  027B  2A69               	goto	l2195
  1963  027C                     l303:	
  1964                           ;C:\Program Files (x86)\Microchip\xc8\v2.10\pic\sources\c99\common\doprnt.c: 707:       
      +                                    case '#' :
  1965                           
  1966                           
  1967                           ;C:\Program Files (x86)\Microchip\xc8\v2.10\pic\sources\c99\common\doprnt.c: 708:       
      +                                        flags |= (1 << 4);
  1968  027C  0021               	movlb	1	; select bank1
  1969  027D  1650               	bsf	_flags^(0+128),4
  1970  027E  2A69               	goto	l2195
  1971  027F                     l2205:	
  1972                           
  1973                           ;C:\Program Files (x86)\Microchip\xc8\v2.10\pic\sources\c99\common\doprnt.c: 712:       
      +                                        done = 1;
  1974  027F  3001               	movlw	1
  1975  0280  00DE               	movwf	vfpfcnvrt@done
  1976  0281  3000               	movlw	0
  1977  0282  00DF               	movwf	vfpfcnvrt@done+1
  1978                           
  1979                           ;C:\Program Files (x86)\Microchip\xc8\v2.10\pic\sources\c99\common\doprnt.c: 713:       
      +                                        break;
  1980  0283  2AA8               	goto	l2211
  1981  0284                     l2209:	
  1982  0284  084E               	movf	vfpfcnvrt@fmt,w
  1983  0285  0086               	movwf	6
  1984  0286  0187               	clrf	7
  1985  0287  3F40               	moviw [0]fsr1
  1986  0288  00D0               	movwf	??_vfpfcnvrt
  1987  0289  3F41               	moviw [1]fsr1
  1988  028A  00D1               	movwf	??_vfpfcnvrt+1
  1989  028B  0850               	movf	??_vfpfcnvrt,w
  1990  028C  0084               	movwf	4
  1991  028D  0851               	movf	??_vfpfcnvrt+1,w
  1992  028E  0085               	movwf	5
  1993  028F  0800               	movf	0,w	;code access
  1994  0290  00D2               	movwf	??_vfpfcnvrt+2
  1995  0291  01D3               	clrf	??_vfpfcnvrt+3
  1996                           
  1997                           ; Switch on 2 bytes has been partitioned into a top level switch of size 1, and 1 sub-sw
      +                          itches
  1998                           ; Switch size 1, requested type "simple"
  1999                           ; Number of cases is 1, Range of values is 0 to 0
  2000                           ; switch strategies available:
  2001                           ; Name         Instructions Cycles
  2002                           ; simple_byte            4     3 (average)
  2003                           ; direct_byte            8     6 (fixed)
  2004                           ; jumptable            260     6 (fixed)
  2005                           ;	Chosen strategy is simple_byte
  2006  0292  0853               	movf	??_vfpfcnvrt+3,w
  2007  0293  3A00               	xorlw	0	; case 0
  2008  0294  1903               	skipnz
  2009  0295  2A97               	goto	l2957
  2010  0296  2A7F               	goto	l2205
  2011  0297                     l2957:	
  2012                           
  2013                           ; Switch size 1, requested type "simple"
  2014                           ; Number of cases is 5, Range of values is 32 to 48
  2015                           ; switch strategies available:
  2016                           ; Name         Instructions Cycles
  2017                           ; simple_byte           16     9 (average)
  2018                           ; direct_byte           43     9 (fixed)
  2019                           ; jumptable            263     9 (fixed)
  2020                           ;	Chosen strategy is simple_byte
  2021  0297  0852               	movf	??_vfpfcnvrt+2,w
  2022  0298  3A20               	xorlw	32	; case 32
  2023  0299  1903               	skipnz
  2024  029A  2A79               	goto	l302
  2025  029B  3A03               	xorlw	3	; case 35
  2026  029C  1903               	skipnz
  2027  029D  2A7C               	goto	l303
  2028  029E  3A08               	xorlw	8	; case 43
  2029  029F  1903               	skipnz
  2030  02A0  2A76               	goto	l301
  2031  02A1  3A06               	xorlw	6	; case 45
  2032  02A2  1903               	skipnz
  2033  02A3  2A67               	goto	l298
  2034  02A4  3A1D               	xorlw	29	; case 48
  2035  02A5  1903               	skipnz
  2036  02A6  2A73               	goto	l300
  2037  02A7  2A7F               	goto	l2205
  2038  02A8                     l2211:	
  2039                           
  2040                           ;C:\Program Files (x86)\Microchip\xc8\v2.10\pic\sources\c99\common\doprnt.c: 689:       
      +                            while (!done) {
  2041  02A8  085E               	movf	vfpfcnvrt@done,w
  2042  02A9  045F               	iorwf	vfpfcnvrt@done+1,w
  2043  02AA  1903               	btfsc	3,2
  2044  02AB  2AAD               	goto	u2421
  2045  02AC  2AAE               	goto	u2420
  2046  02AD                     u2421:	
  2047  02AD  2A84               	goto	l2209
  2048  02AE                     u2420:	
  2049  02AE                     l305:	
  2050                           
  2051                           ;C:\Program Files (x86)\Microchip\xc8\v2.10\pic\sources\c99\common\doprnt.c: 716:       
      +                            if (flags & (1 << 0)) {
  2052  02AE  0021               	movlb	1	; select bank1
  2053  02AF  1C50               	btfss	_flags^(0+128),0
  2054  02B0  2AB2               	goto	u2431
  2055  02B1  2AB3               	goto	u2430
  2056  02B2                     u2431:	
  2057  02B2  2AB7               	goto	l2215
  2058  02B3                     u2430:	
  2059  02B3                     l2213:	
  2060                           
  2061                           ;C:\Program Files (x86)\Microchip\xc8\v2.10\pic\sources\c99\common\doprnt.c: 717:       
      +                                flags &= ~(1 << 1);
  2062  02B3  30FD               	movlw	253
  2063  02B4  05D0               	andwf	_flags^(0+128),f
  2064  02B5  30FF               	movlw	255
  2065  02B6  05D1               	andwf	(_flags+1)^(0+128),f
  2066  02B7                     l2215:	
  2067                           
  2068                           ;C:\Program Files (x86)\Microchip\xc8\v2.10\pic\sources\c99\common\doprnt.c: 723:       
      +                            if ((*fmt)[0] == '*') {
  2069  02B7  0020               	movlb	0	; select bank0
  2070  02B8  084E               	movf	vfpfcnvrt@fmt,w
  2071  02B9  0086               	movwf	6
  2072  02BA  0187               	clrf	7
  2073  02BB  3F40               	moviw [0]fsr1
  2074  02BC  00D0               	movwf	??_vfpfcnvrt
  2075  02BD  3F41               	moviw [1]fsr1
  2076  02BE  00D1               	movwf	??_vfpfcnvrt+1
  2077  02BF  0850               	movf	??_vfpfcnvrt,w
  2078  02C0  0084               	movwf	4
  2079  02C1  0851               	movf	??_vfpfcnvrt+1,w
  2080  02C2  0085               	movwf	5
  2081  02C3  0012               	moviw fsr0++
  2082  02C4  3A2A               	xorlw	42
  2083  02C5  1D03               	btfss	3,2
  2084  02C6  2AC8               	goto	u2441
  2085  02C7  2AC9               	goto	u2440
  2086  02C8                     u2441:	
  2087  02C8  2AE9               	goto	l2227
  2088  02C9                     u2440:	
  2089  02C9                     l2217:	
  2090                           
  2091                           ;C:\Program Files (x86)\Microchip\xc8\v2.10\pic\sources\c99\common\doprnt.c: 724:       
      +                                ++*fmt;
  2092  02C9  084E               	movf	vfpfcnvrt@fmt,w
  2093  02CA  0086               	movwf	6
  2094  02CB  0187               	clrf	7
  2095  02CC  3001               	movlw	1
  2096  02CD  0781               	addwf	1,f
  2097  02CE  3141               	addfsr 1,1
  2098  02CF  1803               	skipnc
  2099  02D0  0A81               	incf	1,f
  2100  02D1                     l2219:	
  2101                           
  2102                           ;C:\Program Files (x86)\Microchip\xc8\v2.10\pic\sources\c99\common\doprnt.c: 725:       
      +                                width = (*(int *)__va_arg(*(int **)ap, (int)0));
  2103  02D1  084F               	movf	vfpfcnvrt@ap,w
  2104  02D2  0086               	movwf	6
  2105  02D3  0187               	clrf	7
  2106  02D4  0801               	movf	1,w
  2107  02D5  0084               	movwf	4
  2108  02D6  0185               	clrf	5
  2109  02D7  3002               	movlw	2
  2110  02D8  0781               	addwf	1,f
  2111  02D9  3F00               	moviw [0]fsr0
  2112  02DA  0021               	movlb	1	; select bank1
  2113  02DB  00CC               	movwf	_width^(0+128)
  2114  02DC  3F01               	moviw [1]fsr0
  2115  02DD  00CD               	movwf	(_width+1)^(0+128)
  2116  02DE                     l2221:	
  2117                           
  2118                           ;C:\Program Files (x86)\Microchip\xc8\v2.10\pic\sources\c99\common\doprnt.c: 726:       
      +                                if (width < 0) {
  2119  02DE  1FCD               	btfss	(_width+1)^(0+128),7
  2120  02DF  2AE1               	goto	u2451
  2121  02E0  2AE2               	goto	u2450
  2122  02E1                     u2451:	
  2123  02E1  2B2B               	goto	l2237
  2124  02E2                     u2450:	
  2125  02E2                     l2223:	
  2126                           
  2127                           ;C:\Program Files (x86)\Microchip\xc8\v2.10\pic\sources\c99\common\doprnt.c: 727:       
      +                                    flags |= (1 << 0);
  2128  02E2  1450               	bsf	_flags^(0+128),0
  2129  02E3                     l2225:	
  2130                           
  2131                           ;C:\Program Files (x86)\Microchip\xc8\v2.10\pic\sources\c99\common\doprnt.c: 728:       
      +                                    width = -width;
  2132  02E3  09CC               	comf	_width^(0+128),f
  2133  02E4  09CD               	comf	(_width+1)^(0+128),f
  2134  02E5  0ACC               	incf	_width^(0+128),f
  2135  02E6  1903               	skipnz
  2136  02E7  0ACD               	incf	(_width+1)^(0+128),f
  2137  02E8  2B2B               	goto	l2237
  2138  02E9                     l2227:	
  2139                           
  2140                           ;C:\Program Files (x86)\Microchip\xc8\v2.10\pic\sources\c99\common\doprnt.c: 731:       
      +                                width = atoi(*fmt);
  2141  02E9  084E               	movf	vfpfcnvrt@fmt,w
  2142  02EA  0086               	movwf	6
  2143  02EB  0187               	clrf	7
  2144  02EC  3F40               	moviw [0]fsr1
  2145  02ED  00F6               	movwf	atoi@s
  2146  02EE  3F41               	moviw [1]fsr1
  2147  02EF  00F7               	movwf	atoi@s+1
  2148  02F0  318B  23F6  3182   	fcall	_atoi
  2149  02F3  0877               	movf	?_atoi+1,w
  2150  02F4  0021               	movlb	1	; select bank1
  2151  02F5  00CD               	movwf	(_width+1)^(0+128)
  2152  02F6  0876               	movf	?_atoi,w
  2153  02F7  00CC               	movwf	_width^(0+128)
  2154                           
  2155                           ;C:\Program Files (x86)\Microchip\xc8\v2.10\pic\sources\c99\common\doprnt.c: 732:       
      +                                while ((0 ? isdigit((*fmt)[0]) : ((unsigned)((*fmt)[0])-'0') < 10)) {
  2156  02F8  2B01               	goto	l2231
  2157  02F9                     l2229:	
  2158                           
  2159                           ;C:\Program Files (x86)\Microchip\xc8\v2.10\pic\sources\c99\common\doprnt.c: 733:       
      +                                    ++*fmt;
  2160  02F9  084E               	movf	vfpfcnvrt@fmt,w
  2161  02FA  0086               	movwf	6
  2162  02FB  0187               	clrf	7
  2163  02FC  3001               	movlw	1
  2164  02FD  0781               	addwf	1,f
  2165  02FE  3141               	addfsr 1,1
  2166  02FF  1803               	skipnc
  2167  0300  0A81               	incf	1,f
  2168  0301                     l2231:	
  2169  0301  0020               	movlb	0	; select bank0
  2170  0302  084E               	movf	vfpfcnvrt@fmt,w
  2171  0303  0086               	movwf	6
  2172  0304  0187               	clrf	7
  2173  0305  3F40               	moviw [0]fsr1
  2174  0306  00D0               	movwf	??_vfpfcnvrt
  2175  0307  3F41               	moviw [1]fsr1
  2176  0308  00D1               	movwf	??_vfpfcnvrt+1
  2177  0309  0850               	movf	??_vfpfcnvrt,w
  2178  030A  0084               	movwf	4
  2179  030B  0851               	movf	??_vfpfcnvrt+1,w
  2180  030C  0085               	movwf	5
  2181  030D  0800               	movf	0,w	;code access
  2182  030E  3ED0               	addlw	208
  2183  030F  00D2               	movwf	??_vfpfcnvrt+2
  2184  0310  30FF               	movlw	255
  2185  0311  1803               	skipnc
  2186  0312  3000               	movlw	0
  2187  0313  00D3               	movwf	??_vfpfcnvrt+3
  2188  0314  3000               	movlw	0
  2189  0315  0253               	subwf	??_vfpfcnvrt+3,w
  2190  0316  300A               	movlw	10
  2191  0317  1903               	skipnz
  2192  0318  0252               	subwf	??_vfpfcnvrt+2,w
  2193  0319  1C03               	skipc
  2194  031A  2B1C               	goto	u2461
  2195  031B  2B1E               	goto	u2460
  2196  031C                     u2461:	
  2197  031C  3001               	movlw	1
  2198  031D  2B1F               	goto	u2470
  2199  031E                     u2460:	
  2200  031E  3000               	movlw	0
  2201  031F                     u2470:	
  2202  031F  00D4               	movwf	??_vfpfcnvrt+4
  2203  0320  01D5               	clrf	??_vfpfcnvrt+5
  2204  0321  0854               	movf	??_vfpfcnvrt+4,w
  2205  0322  00E0               	movwf	_vfpfcnvrt$524
  2206  0323  0855               	movf	??_vfpfcnvrt+5,w
  2207  0324  00E1               	movwf	_vfpfcnvrt$524+1
  2208  0325                     l2235:	
  2209  0325  0860               	movf	_vfpfcnvrt$524,w
  2210  0326  0461               	iorwf	_vfpfcnvrt$524+1,w
  2211  0327  1D03               	btfss	3,2
  2212  0328  2B2A               	goto	u2481
  2213  0329  2B2B               	goto	u2480
  2214  032A                     u2481:	
  2215  032A  2AF9               	goto	l2229
  2216  032B                     u2480:	
  2217  032B                     l2237:	
  2218                           
  2219                           ;C:\Program Files (x86)\Microchip\xc8\v2.10\pic\sources\c99\common\doprnt.c: 825:       
      +                            if ((*fmt[0] == 'd') || (*fmt[0] == 'i')) {
  2220  032B  0020               	movlb	0	; select bank0
  2221  032C  084E               	movf	vfpfcnvrt@fmt,w
  2222  032D  0086               	movwf	6
  2223  032E  0187               	clrf	7
  2224  032F  3F40               	moviw [0]fsr1
  2225  0330  00D0               	movwf	??_vfpfcnvrt
  2226  0331  3F41               	moviw [1]fsr1
  2227  0332  00D1               	movwf	??_vfpfcnvrt+1
  2228  0333  0850               	movf	??_vfpfcnvrt,w
  2229  0334  0084               	movwf	4
  2230  0335  0851               	movf	??_vfpfcnvrt+1,w
  2231  0336  0085               	movwf	5
  2232  0337  0012               	moviw fsr0++
  2233  0338  3A64               	xorlw	100
  2234  0339  1903               	btfsc	3,2
  2235  033A  2B3C               	goto	u2491
  2236  033B  2B3D               	goto	u2490
  2237  033C                     u2491:	
  2238  033C  2B4E               	goto	l2241
  2239  033D                     u2490:	
  2240  033D                     l2239:	
  2241  033D  084E               	movf	vfpfcnvrt@fmt,w
  2242  033E  0086               	movwf	6
  2243  033F  0187               	clrf	7
  2244  0340  3F40               	moviw [0]fsr1
  2245  0341  00D0               	movwf	??_vfpfcnvrt
  2246  0342  3F41               	moviw [1]fsr1
  2247  0343  00D1               	movwf	??_vfpfcnvrt+1
  2248  0344  0850               	movf	??_vfpfcnvrt,w
  2249  0345  0084               	movwf	4
  2250  0346  0851               	movf	??_vfpfcnvrt+1,w
  2251  0347  0085               	movwf	5
  2252  0348  0012               	moviw fsr0++
  2253  0349  3A69               	xorlw	105
  2254  034A  1D03               	btfss	3,2
  2255  034B  2B4D               	goto	u2501
  2256  034C  2B4E               	goto	u2500
  2257  034D                     u2501:	
  2258  034D  2B89               	goto	l2249
  2259  034E                     u2500:	
  2260  034E                     l2241:	
  2261                           
  2262                           ;C:\Program Files (x86)\Microchip\xc8\v2.10\pic\sources\c99\common\doprnt.c: 827:       
      +                                ++*fmt;
  2263  034E  084E               	movf	vfpfcnvrt@fmt,w
  2264  034F  0086               	movwf	6
  2265  0350  0187               	clrf	7
  2266  0351  3001               	movlw	1
  2267  0352  0781               	addwf	1,f
  2268  0353  3141               	addfsr 1,1
  2269  0354  1803               	skipnc
  2270  0355  0A81               	incf	1,f
  2271  0356                     l2243:	
  2272                           
  2273                           ;C:\Program Files (x86)\Microchip\xc8\v2.10\pic\sources\c99\common\doprnt.c: 828:       
      +                                ll = (long long)(*(int *)__va_arg(*(int **)ap, (int)0));
  2274  0356  084F               	movf	vfpfcnvrt@ap,w
  2275  0357  0086               	movwf	6
  2276  0358  0187               	clrf	7
  2277  0359  0801               	movf	1,w
  2278  035A  0084               	movwf	4
  2279  035B  0185               	clrf	5
  2280  035C  3002               	movlw	2
  2281  035D  0781               	addwf	1,f
  2282  035E  3F00               	moviw [0]fsr0
  2283  035F  00D0               	movwf	??_vfpfcnvrt
  2284  0360  3F01               	moviw [1]fsr0
  2285  0361  00D1               	movwf	??_vfpfcnvrt+1
  2286  0362  0850               	movf	??_vfpfcnvrt,w
  2287  0363  00D6               	movwf	vfpfcnvrt@ll
  2288  0364  0851               	movf	??_vfpfcnvrt+1,w
  2289  0365  00D7               	movwf	vfpfcnvrt@ll+1
  2290  0366  0D89               	rlf	9,f
  2291  0367  3B89               	subwfb	9,f
  2292  0368  0989               	comf	9,f
  2293  0369  00D8               	movwf	vfpfcnvrt@ll+2
  2294  036A  00D9               	movwf	vfpfcnvrt@ll+3
  2295  036B  00DA               	movwf	vfpfcnvrt@ll+4
  2296  036C  00DB               	movwf	vfpfcnvrt@ll+5
  2297  036D  00DC               	movwf	vfpfcnvrt@ll+6
  2298  036E  00DD               	movwf	vfpfcnvrt@ll+7
  2299  036F                     l2245:	
  2300                           
  2301                           ;C:\Program Files (x86)\Microchip\xc8\v2.10\pic\sources\c99\common\doprnt.c: 830:       
      +                                return dtoa(fp, ll);
  2302  036F  0856               	movf	vfpfcnvrt@ll,w
  2303  0370  00B0               	movwf	dtoa@d
  2304  0371  0857               	movf	vfpfcnvrt@ll+1,w
  2305  0372  00B1               	movwf	dtoa@d+1
  2306  0373  0858               	movf	vfpfcnvrt@ll+2,w
  2307  0374  00B2               	movwf	dtoa@d+2
  2308  0375  0859               	movf	vfpfcnvrt@ll+3,w
  2309  0376  00B3               	movwf	dtoa@d+3
  2310  0377  085A               	movf	vfpfcnvrt@ll+4,w
  2311  0378  00B4               	movwf	dtoa@d+4
  2312  0379  085B               	movf	vfpfcnvrt@ll+5,w
  2313  037A  00B5               	movwf	dtoa@d+5
  2314  037B  085C               	movf	vfpfcnvrt@ll+6,w
  2315  037C  00B6               	movwf	dtoa@d+6
  2316  037D  085D               	movf	vfpfcnvrt@ll+7,w
  2317  037E  00B7               	movwf	dtoa@d+7
  2318  037F  0862               	movf	vfpfcnvrt@fp,w
  2319  0380  318E  2690  3182   	fcall	_dtoa
  2320  0383  0020               	movlb	0	; select bank0
  2321  0384  0831               	movf	?_dtoa+1,w
  2322  0385  00CF               	movwf	?_vfpfcnvrt+1
  2323  0386  0830               	movf	?_dtoa,w
  2324  0387  00CE               	movwf	?_vfpfcnvrt
  2325  0388  2BE1               	goto	l320
  2326  0389                     l2249:	
  2327                           
  2328                           ;C:\Program Files (x86)\Microchip\xc8\v2.10\pic\sources\c99\common\doprnt.c: 1350:      
      +                             if ((*fmt)[0] == '%') {
  2329  0389  084E               	movf	vfpfcnvrt@fmt,w
  2330  038A  0086               	movwf	6
  2331  038B  0187               	clrf	7
  2332  038C  3F40               	moviw [0]fsr1
  2333  038D  00D0               	movwf	??_vfpfcnvrt
  2334  038E  3F41               	moviw [1]fsr1
  2335  038F  00D1               	movwf	??_vfpfcnvrt+1
  2336  0390  0850               	movf	??_vfpfcnvrt,w
  2337  0391  0084               	movwf	4
  2338  0392  0851               	movf	??_vfpfcnvrt+1,w
  2339  0393  0085               	movwf	5
  2340  0394  0012               	moviw fsr0++
  2341  0395  3A25               	xorlw	37
  2342  0396  1D03               	btfss	3,2
  2343  0397  2B99               	goto	u2511
  2344  0398  2B9A               	goto	u2510
  2345  0399                     u2511:	
  2346  0399  2BB3               	goto	l2259
  2347  039A                     u2510:	
  2348  039A                     l2251:	
  2349                           
  2350                           ;C:\Program Files (x86)\Microchip\xc8\v2.10\pic\sources\c99\common\doprnt.c: 1351:      
      +                                 ++*fmt;
  2351  039A  084E               	movf	vfpfcnvrt@fmt,w
  2352  039B  0086               	movwf	6
  2353  039C  0187               	clrf	7
  2354  039D  3001               	movlw	1
  2355  039E  0781               	addwf	1,f
  2356  039F  3141               	addfsr 1,1
  2357  03A0  1803               	skipnc
  2358  03A1  0A81               	incf	1,f
  2359  03A2                     l2253:	
  2360                           
  2361                           ;C:\Program Files (x86)\Microchip\xc8\v2.10\pic\sources\c99\common\doprnt.c: 1352:      
      +                                 fputc((int)'%', fp);
  2362  03A2  3025               	movlw	37
  2363  03A3  00F0               	movwf	fputc@c
  2364  03A4  3000               	movlw	0
  2365  03A5  00F1               	movwf	fputc@c+1
  2366  03A6  0862               	movf	vfpfcnvrt@fp,w
  2367  03A7  00D0               	movwf	??_vfpfcnvrt
  2368  03A8  0850               	movf	??_vfpfcnvrt,w
  2369  03A9  00F2               	movwf	fputc@fp
  2370  03AA  3188  20F9  3182   	fcall	_fputc
  2371  03AD                     l2255:	
  2372                           
  2373                           ;C:\Program Files (x86)\Microchip\xc8\v2.10\pic\sources\c99\common\doprnt.c: 1353:      
      +                                 return 1;
  2374  03AD  3001               	movlw	1
  2375  03AE  0020               	movlb	0	; select bank0
  2376  03AF  00CE               	movwf	?_vfpfcnvrt
  2377  03B0  3000               	movlw	0
  2378  03B1  00CF               	movwf	?_vfpfcnvrt+1
  2379  03B2  2BE1               	goto	l320
  2380  03B3                     l2259:	
  2381                           
  2382                           ;C:\Program Files (x86)\Microchip\xc8\v2.10\pic\sources\c99\common\doprnt.c: 1357:      
      +                             ++*fmt;
  2383  03B3  084E               	movf	vfpfcnvrt@fmt,w
  2384  03B4  0086               	movwf	6
  2385  03B5  0187               	clrf	7
  2386  03B6  3001               	movlw	1
  2387  03B7  0781               	addwf	1,f
  2388  03B8  3141               	addfsr 1,1
  2389  03B9  1803               	skipnc
  2390  03BA  0A81               	incf	1,f
  2391  03BB                     l2261:	
  2392                           
  2393                           ;C:\Program Files (x86)\Microchip\xc8\v2.10\pic\sources\c99\common\doprnt.c: 1358:      
      +                             return 0;
  2394  03BB  01CE               	clrf	?_vfpfcnvrt
  2395  03BC  01CF               	clrf	?_vfpfcnvrt+1
  2396  03BD  2BE1               	goto	l320
  2397  03BE                     l2265:	
  2398                           
  2399                           ;C:\Program Files (x86)\Microchip\xc8\v2.10\pic\sources\c99\common\doprnt.c: 1362:     f
      +                          putc((int)(*fmt)[0], fp);
  2400  03BE  084E               	movf	vfpfcnvrt@fmt,w
  2401  03BF  0086               	movwf	6
  2402  03C0  0187               	clrf	7
  2403  03C1  3F40               	moviw [0]fsr1
  2404  03C2  00D0               	movwf	??_vfpfcnvrt
  2405  03C3  3F41               	moviw [1]fsr1
  2406  03C4  00D1               	movwf	??_vfpfcnvrt+1
  2407  03C5  0850               	movf	??_vfpfcnvrt,w
  2408  03C6  0084               	movwf	4
  2409  03C7  0851               	movf	??_vfpfcnvrt+1,w
  2410  03C8  0085               	movwf	5
  2411  03C9  0800               	movf	0,w	;code access
  2412  03CA  00D2               	movwf	??_vfpfcnvrt+2
  2413  03CB  01D3               	clrf	??_vfpfcnvrt+3
  2414  03CC  0852               	movf	??_vfpfcnvrt+2,w
  2415  03CD  00F0               	movwf	fputc@c
  2416  03CE  0853               	movf	??_vfpfcnvrt+3,w
  2417  03CF  00F1               	movwf	fputc@c+1
  2418  03D0  0862               	movf	vfpfcnvrt@fp,w
  2419  03D1  00D4               	movwf	??_vfpfcnvrt+4
  2420  03D2  0854               	movf	??_vfpfcnvrt+4,w
  2421  03D3  00F2               	movwf	fputc@fp
  2422  03D4  3188  20F9  3182   	fcall	_fputc
  2423  03D7                     l2267:	
  2424                           
  2425                           ;C:\Program Files (x86)\Microchip\xc8\v2.10\pic\sources\c99\common\doprnt.c: 1363:     +
      +                          +*fmt;
  2426  03D7  0020               	movlb	0	; select bank0
  2427  03D8  084E               	movf	vfpfcnvrt@fmt,w
  2428  03D9  0086               	movwf	6
  2429  03DA  0187               	clrf	7
  2430  03DB  3001               	movlw	1
  2431  03DC  0781               	addwf	1,f
  2432  03DD  3141               	addfsr 1,1
  2433  03DE  1803               	skipnc
  2434  03DF  0A81               	incf	1,f
  2435  03E0  2BAD               	goto	l2255
  2436  03E1                     l320:	
  2437  03E1  0008               	return
  2438  03E2                     __end_of_vfpfcnvrt:	
  2439                           
  2440                           	psect	text4
  2441  0E90                     __ptext4:	
  2442 ;; *************** function _dtoa *****************
  2443 ;; Defined at:
  2444 ;;		line 274 in file "C:\Program Files (x86)\Microchip\xc8\v2.10\pic\sources\c99\common\doprnt.c"
  2445 ;; Parameters:    Size  Location     Type
  2446 ;;  fp              1    wreg     PTR struct _IO_FILE
  2447 ;;		 -> sprintf@f(5), 
  2448 ;;  d               8   16[BANK0 ] long long 
  2449 ;; Auto vars:     Size  Location     Type
  2450 ;;  fp              1   29[BANK0 ] PTR struct _IO_FILE
  2451 ;;		 -> sprintf@f(5), 
  2452 ;;  n               8   36[BANK0 ] long long 
  2453 ;;  i               2   44[BANK0 ] int 
  2454 ;;  s               2   34[BANK0 ] int 
  2455 ;;  w               2   32[BANK0 ] int 
  2456 ;;  p               2   30[BANK0 ] int 
  2457 ;; Return value:  Size  Location     Type
  2458 ;;                  2   16[BANK0 ] int 
  2459 ;; Registers used:
  2460 ;;		wreg, fsr0l, fsr0h, fsr1l, fsr1h, status,2, status,0, pclath, cstack
  2461 ;; Tracked objects:
  2462 ;;		On entry : 0/0
  2463 ;;		On exit  : 0/0
  2464 ;;		Unchanged: 0/0
  2465 ;; Data sizes:     COMMON   BANK0   BANK1   BANK2   BANK3   BANK4   BANK5   BANK6   BANK7   BANK8   BANK9  BANK10  BANK1
      +1  BANK12
  2466 ;;      Params:         0       8       0       0       0       0       0       0       0       0       0       0       
      +0       0
  2467 ;;      Locals:         0      19       0       0       0       0       0       0       0       0       0       0       
      +0       0
  2468 ;;      Temps:          0       3       0       0       0       0       0       0       0       0       0       0       
      +0       0
  2469 ;;      Totals:         0      30       0       0       0       0       0       0       0       0       0       0       
      +0       0
  2470 ;;Total ram usage:       30 bytes
  2471 ;; Hardware stack levels used:    1
  2472 ;; Hardware stack levels required when called:    4
  2473 ;; This function calls:
  2474 ;;		___aodiv
  2475 ;;		___aomod
  2476 ;;		_abs
  2477 ;;		_pad
  2478 ;; This function is called by:
  2479 ;;		_vfpfcnvrt
  2480 ;; This function uses a non-reentrant model
  2481 ;;
  2482                           
  2483                           
  2484                           ;psect for function _dtoa
  2485  0E90                     _dtoa:	
  2486                           
  2487                           ;incstack = 0
  2488                           ; Regs used in _dtoa: [wreg-fsr1h+status,2+status,0+pclath+cstack]
  2489                           ;dtoa@fp stored from wreg
  2490  0E90  0020               	movlb	0	; select bank0
  2491  0E91  00BD               	movwf	dtoa@fp
  2492  0E92                     l2081:	
  2493                           
  2494                           ;C:\Program Files (x86)\Microchip\xc8\v2.10\pic\sources\c99\common\doprnt.c: 274: static
      +                           int dtoa(FILE *fp, long long d);C:\Program Files (x86)\Microchip\xc8\v2.10\pic\sources\
      +                          c99\common\doprnt.c: 275: {;C:\Program Files (x86)\Microchip\xc8\v2.10\pic\sources\c99\c
      +                          ommon\doprnt.c: 276:     int i, p, s, w;;C:\Program Files (x86)\Microchip\xc8\v2.10\pic\
      +                          sources\c99\common\doprnt.c: 277:     long long n;;C:\Program Files (x86)\Microchip\xc8\
      +                          v2.10\pic\sources\c99\common\doprnt.c: 280:     n = d;
  2495  0E92  0830               	movf	dtoa@d,w
  2496  0E93  00C4               	movwf	dtoa@n
  2497  0E94  0831               	movf	dtoa@d+1,w
  2498  0E95  00C5               	movwf	dtoa@n+1
  2499  0E96  0832               	movf	dtoa@d+2,w
  2500  0E97  00C6               	movwf	dtoa@n+2
  2501  0E98  0833               	movf	dtoa@d+3,w
  2502  0E99  00C7               	movwf	dtoa@n+3
  2503  0E9A  0834               	movf	dtoa@d+4,w
  2504  0E9B  00C8               	movwf	dtoa@n+4
  2505  0E9C  0835               	movf	dtoa@d+5,w
  2506  0E9D  00C9               	movwf	dtoa@n+5
  2507  0E9E  0836               	movf	dtoa@d+6,w
  2508  0E9F  00CA               	movwf	dtoa@n+6
  2509  0EA0  0837               	movf	dtoa@d+7,w
  2510  0EA1  00CB               	movwf	dtoa@n+7
  2511  0EA2                     l2083:	
  2512                           
  2513                           ;C:\Program Files (x86)\Microchip\xc8\v2.10\pic\sources\c99\common\doprnt.c: 281:     s 
      +                          = n < 0 ? 1 : 0;
  2514  0EA2  3044               	movlw	low dtoa@n
  2515  0EA3  0086               	movwf	6
  2516  0EA4  3000               	movlw	high dtoa@n
  2517  0EA5  0087               	movwf	7
  2518  0EA6  3F47               	moviw [7]fsr1
  2519  0EA7  00B8               	movwf	??_dtoa
  2520  0EA8  1BB8               	btfsc	??_dtoa,7
  2521  0EA9  2EAB               	goto	u2181
  2522  0EAA  2EAD               	goto	u2180
  2523  0EAB                     u2181:	
  2524  0EAB  3001               	movlw	1
  2525  0EAC  2EAE               	goto	u2190
  2526  0EAD                     u2180:	
  2527  0EAD  3000               	movlw	0
  2528  0EAE                     u2190:	
  2529  0EAE  0020               	movlb	0	; select bank0
  2530  0EAF  00B9               	movwf	??_dtoa+1
  2531  0EB0  01BA               	clrf	??_dtoa+2
  2532  0EB1  0839               	movf	??_dtoa+1,w
  2533  0EB2  00C2               	movwf	dtoa@s
  2534  0EB3  083A               	movf	??_dtoa+2,w
  2535  0EB4  00C3               	movwf	dtoa@s+1
  2536  0EB5                     l2085:	
  2537                           
  2538                           ;C:\Program Files (x86)\Microchip\xc8\v2.10\pic\sources\c99\common\doprnt.c: 282:     if
      +                           (s) {
  2539  0EB5  0842               	movf	dtoa@s,w
  2540  0EB6  0443               	iorwf	dtoa@s+1,w
  2541  0EB7  1903               	btfsc	3,2
  2542  0EB8  2EBA               	goto	u2201
  2543  0EB9  2EBB               	goto	u2200
  2544  0EBA                     u2201:	
  2545  0EBA  2ED9               	goto	l268
  2546  0EBB                     u2200:	
  2547  0EBB                     l2087:	
  2548                           
  2549                           ;C:\Program Files (x86)\Microchip\xc8\v2.10\pic\sources\c99\common\doprnt.c: 283:       
      +                            n = -n;
  2550  0EBB  09C4               	comf	dtoa@n,f
  2551  0EBC  09C5               	comf	dtoa@n+1,f
  2552  0EBD  09C6               	comf	dtoa@n+2,f
  2553  0EBE  09C7               	comf	dtoa@n+3,f
  2554  0EBF  09C8               	comf	dtoa@n+4,f
  2555  0EC0  09C9               	comf	dtoa@n+5,f
  2556  0EC1  09CA               	comf	dtoa@n+6,f
  2557  0EC2  09CB               	comf	dtoa@n+7,f
  2558  0EC3  0AC4               	incf	dtoa@n,f
  2559  0EC4  1D03               	skipz
  2560  0EC5  2ED9               	goto	u221lld
  2561  0EC6  0AC5               	incf	dtoa@n+1,f
  2562  0EC7  1D03               	skipz
  2563  0EC8  2ED9               	goto	u221lld
  2564  0EC9  0AC6               	incf	dtoa@n+2,f
  2565  0ECA  1D03               	skipz
  2566  0ECB  2ED9               	goto	u221lld
  2567  0ECC  0AC7               	incf	dtoa@n+3,f
  2568  0ECD  1D03               	skipz
  2569  0ECE  2ED9               	goto	u221lld
  2570  0ECF  0AC8               	incf	dtoa@n+4,f
  2571  0ED0  1D03               	skipz
  2572  0ED1  2ED9               	goto	u221lld
  2573  0ED2  0AC9               	incf	dtoa@n+5,f
  2574  0ED3  1D03               	skipz
  2575  0ED4  2ED9               	goto	u221lld
  2576  0ED5  0ACA               	incf	dtoa@n+6,f
  2577  0ED6  1D03               	skipz
  2578  0ED7  2ED9               	goto	u221lld
  2579  0ED8  0ACB               	incf	dtoa@n+7,f
  2580  0ED9                     u221lld:	
  2581  0ED9                     l268:	
  2582                           ;C:\Program Files (x86)\Microchip\xc8\v2.10\pic\sources\c99\common\doprnt.c: 284:     }
  2583                           
  2584                           
  2585                           ;C:\Program Files (x86)\Microchip\xc8\v2.10\pic\sources\c99\common\doprnt.c: 287:     if
      +                           (!(prec < 0)) {
  2586  0ED9  0021               	movlb	1	; select bank1
  2587  0EDA  1BCF               	btfsc	(_prec+1)^(0+128),7
  2588  0EDB  2EDD               	goto	u2221
  2589  0EDC  2EDE               	goto	u2220
  2590  0EDD                     u2221:	
  2591  0EDD  2EE2               	goto	l269
  2592  0EDE                     u2220:	
  2593  0EDE                     l2089:	
  2594                           
  2595                           ;C:\Program Files (x86)\Microchip\xc8\v2.10\pic\sources\c99\common\doprnt.c: 288:       
      +                            flags &= ~(1 << 1);
  2596  0EDE  30FD               	movlw	253
  2597  0EDF  05D0               	andwf	_flags^(0+128),f
  2598  0EE0  30FF               	movlw	255
  2599  0EE1  05D1               	andwf	(_flags+1)^(0+128),f
  2600  0EE2                     l269:	
  2601                           ;C:\Program Files (x86)\Microchip\xc8\v2.10\pic\sources\c99\common\doprnt.c: 289:     }
  2602                           
  2603                           
  2604                           ;C:\Program Files (x86)\Microchip\xc8\v2.10\pic\sources\c99\common\doprnt.c: 290:     p 
      +                          = (0 < prec) ? prec : 1;
  2605  0EE2  084F               	movf	(_prec+1)^(0+128),w
  2606  0EE3  3A80               	xorlw	128
  2607  0EE4  0020               	movlb	0	; select bank0
  2608  0EE5  00B8               	movwf	??_dtoa
  2609  0EE6  3080               	movlw	128
  2610  0EE7  0238               	subwf	??_dtoa,w
  2611  0EE8  1D03               	skipz
  2612  0EE9  2EED               	goto	u2235
  2613  0EEA  3001               	movlw	1
  2614  0EEB  0021               	movlb	1	; select bank1
  2615  0EEC  024E               	subwf	_prec^(0+128),w
  2616  0EED                     u2235:	
  2617  0EED  1803               	skipnc
  2618  0EEE  2EF0               	goto	u2231
  2619  0EEF  2EF1               	goto	u2230
  2620  0EF0                     u2231:	
  2621  0EF0  2EF7               	goto	l2093
  2622  0EF1                     u2230:	
  2623  0EF1                     l2091:	
  2624  0EF1  3001               	movlw	1
  2625  0EF2  0020               	movlb	0	; select bank0
  2626  0EF3  00BE               	movwf	dtoa@p
  2627  0EF4  3000               	movlw	0
  2628  0EF5  00BF               	movwf	dtoa@p+1
  2629  0EF6  2EFF               	goto	l273
  2630  0EF7                     l2093:	
  2631  0EF7  0021               	movlb	1	; select bank1
  2632  0EF8  084F               	movf	(_prec+1)^(0+128),w
  2633  0EF9  0020               	movlb	0	; select bank0
  2634  0EFA  00BF               	movwf	dtoa@p+1
  2635  0EFB  0021               	movlb	1	; select bank1
  2636  0EFC  084E               	movf	_prec^(0+128),w
  2637  0EFD  0020               	movlb	0	; select bank0
  2638  0EFE  00BE               	movwf	dtoa@p
  2639  0EFF                     l273:	
  2640                           
  2641                           ;C:\Program Files (x86)\Microchip\xc8\v2.10\pic\sources\c99\common\doprnt.c: 291:     w 
      +                          = width;
  2642  0EFF  0021               	movlb	1	; select bank1
  2643  0F00  084D               	movf	(_width+1)^(0+128),w
  2644  0F01  0020               	movlb	0	; select bank0
  2645  0F02  00C1               	movwf	dtoa@w+1
  2646  0F03  0021               	movlb	1	; select bank1
  2647  0F04  084C               	movf	_width^(0+128),w
  2648  0F05  0020               	movlb	0	; select bank0
  2649  0F06  00C0               	movwf	dtoa@w
  2650  0F07                     l2095:	
  2651                           
  2652                           ;C:\Program Files (x86)\Microchip\xc8\v2.10\pic\sources\c99\common\doprnt.c: 292:     if
      +                           (s || (flags & (1 << 2))) {
  2653  0F07  0842               	movf	dtoa@s,w
  2654  0F08  0443               	iorwf	dtoa@s+1,w
  2655  0F09  1D03               	btfss	3,2
  2656  0F0A  2F0C               	goto	u2241
  2657  0F0B  2F0D               	goto	u2240
  2658  0F0C                     u2241:	
  2659  0F0C  2F12               	goto	l2099
  2660  0F0D                     u2240:	
  2661  0F0D                     l2097:	
  2662  0F0D  0021               	movlb	1	; select bank1
  2663  0F0E  1D50               	btfss	_flags^(0+128),2
  2664  0F0F  2F11               	goto	u2251
  2665  0F10  2F12               	goto	u2250
  2666  0F11                     u2251:	
  2667  0F11  2F17               	goto	l274
  2668  0F12                     u2250:	
  2669  0F12                     l2099:	
  2670                           
  2671                           ;C:\Program Files (x86)\Microchip\xc8\v2.10\pic\sources\c99\common\doprnt.c: 293:       
      +                            --w;
  2672  0F12  30FF               	movlw	255
  2673  0F13  0020               	movlb	0	; select bank0
  2674  0F14  07C0               	addwf	dtoa@w,f
  2675  0F15  30FF               	movlw	255
  2676  0F16  3DC1               	addwfc	dtoa@w+1,f
  2677  0F17                     l274:	
  2678                           ;C:\Program Files (x86)\Microchip\xc8\v2.10\pic\sources\c99\common\doprnt.c: 294:     }
  2679                           
  2680                           
  2681                           ;C:\Program Files (x86)\Microchip\xc8\v2.10\pic\sources\c99\common\doprnt.c: 297:     i 
      +                          = sizeof(dbuf) - 1;
  2682  0F17  301F               	movlw	31
  2683  0F18  0020               	movlb	0	; select bank0
  2684  0F19  00CC               	movwf	dtoa@i
  2685  0F1A  3000               	movlw	0
  2686  0F1B  00CD               	movwf	dtoa@i+1
  2687  0F1C                     l2101:	
  2688                           
  2689                           ;C:\Program Files (x86)\Microchip\xc8\v2.10\pic\sources\c99\common\doprnt.c: 298:     db
      +                          uf[i] = '\0';
  2690  0F1C  0022               	movlb	2	; select bank2
  2691  0F1D  01BF               	clrf	(_dbuf^(0+256)+31)
  2692                           
  2693                           ;C:\Program Files (x86)\Microchip\xc8\v2.10\pic\sources\c99\common\doprnt.c: 299:     wh
      +                          ile (!(i < 1) && (n || (0 < p) || ((0 < w) && (flags & (1 << 1))))) {
  2694  0F1E  2F88               	goto	l277
  2695  0F1F                     l2103:	
  2696                           
  2697                           ;C:\Program Files (x86)\Microchip\xc8\v2.10\pic\sources\c99\common\doprnt.c: 300:       
      +                            --i;
  2698  0F1F  30FF               	movlw	255
  2699  0F20  0020               	movlb	0	; select bank0
  2700  0F21  07CC               	addwf	dtoa@i,f
  2701  0F22  30FF               	movlw	255
  2702  0F23  3DCD               	addwfc	dtoa@i+1,f
  2703  0F24                     l2105:	
  2704                           
  2705                           ;C:\Program Files (x86)\Microchip\xc8\v2.10\pic\sources\c99\common\doprnt.c: 301:       
      +                            dbuf[i] = '0' + abs(n % 10);
  2706  0F24  300A               	movlw	10
  2707  0F25  00A0               	movwf	___aomod@divisor
  2708  0F26  01A1               	clrf	___aomod@divisor+1
  2709  0F27  01A2               	clrf	___aomod@divisor+2
  2710  0F28  01A3               	clrf	___aomod@divisor+3
  2711  0F29  01A4               	clrf	___aomod@divisor+4
  2712  0F2A  01A5               	clrf	___aomod@divisor+5
  2713  0F2B  01A6               	clrf	___aomod@divisor+6
  2714  0F2C  01A7               	clrf	___aomod@divisor+7
  2715  0F2D  0844               	movf	dtoa@n,w
  2716  0F2E  00A8               	movwf	___aomod@dividend
  2717  0F2F  0845               	movf	dtoa@n+1,w
  2718  0F30  00A9               	movwf	___aomod@dividend+1
  2719  0F31  0846               	movf	dtoa@n+2,w
  2720  0F32  00AA               	movwf	___aomod@dividend+2
  2721  0F33  0847               	movf	dtoa@n+3,w
  2722  0F34  00AB               	movwf	___aomod@dividend+3
  2723  0F35  0848               	movf	dtoa@n+4,w
  2724  0F36  00AC               	movwf	___aomod@dividend+4
  2725  0F37  0849               	movf	dtoa@n+5,w
  2726  0F38  00AD               	movwf	___aomod@dividend+5
  2727  0F39  084A               	movf	dtoa@n+6,w
  2728  0F3A  00AE               	movwf	___aomod@dividend+6
  2729  0F3B  084B               	movf	dtoa@n+7,w
  2730  0F3C  00AF               	movwf	___aomod@dividend+7
  2731  0F3D  318C  24A5  318E   	fcall	___aomod
  2732  0F40  0020               	movlb	0	; select bank0
  2733  0F41  0821               	movf	?___aomod+1,w
  2734  0F42  00F4               	movwf	abs@a+1
  2735  0F43  0820               	movf	?___aomod,w
  2736  0F44  00F3               	movwf	abs@a
  2737  0F45  3197  278C  318E   	fcall	_abs
  2738  0F48  0873               	movf	?_abs,w
  2739  0F49  3E30               	addlw	48
  2740  0F4A  0020               	movlb	0	; select bank0
  2741  0F4B  00B8               	movwf	??_dtoa
  2742  0F4C  084C               	movf	dtoa@i,w
  2743  0F4D  3E20               	addlw	(low (_dbuf| (0+256)))& (0+255)
  2744  0F4E  0086               	movwf	6
  2745  0F4F  3001               	movlw	1	; select bank2/3
  2746  0F50  0087               	movwf	7
  2747  0F51  0838               	movf	??_dtoa,w
  2748  0F52  0081               	movwf	1
  2749  0F53                     l2107:	
  2750                           
  2751                           ;C:\Program Files (x86)\Microchip\xc8\v2.10\pic\sources\c99\common\doprnt.c: 302:       
      +                            --p;
  2752  0F53  30FF               	movlw	255
  2753  0F54  07BE               	addwf	dtoa@p,f
  2754  0F55  30FF               	movlw	255
  2755  0F56  3DBF               	addwfc	dtoa@p+1,f
  2756  0F57                     l2109:	
  2757                           
  2758                           ;C:\Program Files (x86)\Microchip\xc8\v2.10\pic\sources\c99\common\doprnt.c: 303:       
      +                            --w;
  2759  0F57  30FF               	movlw	255
  2760  0F58  07C0               	addwf	dtoa@w,f
  2761  0F59  30FF               	movlw	255
  2762  0F5A  3DC1               	addwfc	dtoa@w+1,f
  2763  0F5B                     l2111:	
  2764                           
  2765                           ;C:\Program Files (x86)\Microchip\xc8\v2.10\pic\sources\c99\common\doprnt.c: 304:       
      +                            n = n / 10;
  2766  0F5B  300A               	movlw	10
  2767  0F5C  00A0               	movwf	___aodiv@divisor
  2768  0F5D  01A1               	clrf	___aodiv@divisor+1
  2769  0F5E  01A2               	clrf	___aodiv@divisor+2
  2770  0F5F  01A3               	clrf	___aodiv@divisor+3
  2771  0F60  01A4               	clrf	___aodiv@divisor+4
  2772  0F61  01A5               	clrf	___aodiv@divisor+5
  2773  0F62  01A6               	clrf	___aodiv@divisor+6
  2774  0F63  01A7               	clrf	___aodiv@divisor+7
  2775  0F64  0844               	movf	dtoa@n,w
  2776  0F65  00A8               	movwf	___aodiv@dividend
  2777  0F66  0845               	movf	dtoa@n+1,w
  2778  0F67  00A9               	movwf	___aodiv@dividend+1
  2779  0F68  0846               	movf	dtoa@n+2,w
  2780  0F69  00AA               	movwf	___aodiv@dividend+2
  2781  0F6A  0847               	movf	dtoa@n+3,w
  2782  0F6B  00AB               	movwf	___aodiv@dividend+3
  2783  0F6C  0848               	movf	dtoa@n+4,w
  2784  0F6D  00AC               	movwf	___aodiv@dividend+4
  2785  0F6E  0849               	movf	dtoa@n+5,w
  2786  0F6F  00AD               	movwf	___aodiv@dividend+5
  2787  0F70  084A               	movf	dtoa@n+6,w
  2788  0F71  00AE               	movwf	___aodiv@dividend+6
  2789  0F72  084B               	movf	dtoa@n+7,w
  2790  0F73  00AF               	movwf	___aodiv@dividend+7
  2791  0F74  318D  258F  318E   	fcall	___aodiv
  2792  0F77  0020               	movlb	0	; select bank0
  2793  0F78  0820               	movf	?___aodiv,w
  2794  0F79  00C4               	movwf	dtoa@n
  2795  0F7A  0821               	movf	?___aodiv+1,w
  2796  0F7B  00C5               	movwf	dtoa@n+1
  2797  0F7C  0822               	movf	?___aodiv+2,w
  2798  0F7D  00C6               	movwf	dtoa@n+2
  2799  0F7E  0823               	movf	?___aodiv+3,w
  2800  0F7F  00C7               	movwf	dtoa@n+3
  2801  0F80  0824               	movf	?___aodiv+4,w
  2802  0F81  00C8               	movwf	dtoa@n+4
  2803  0F82  0825               	movf	?___aodiv+5,w
  2804  0F83  00C9               	movwf	dtoa@n+5
  2805  0F84  0826               	movf	?___aodiv+6,w
  2806  0F85  00CA               	movwf	dtoa@n+6
  2807  0F86  0827               	movf	?___aodiv+7,w
  2808  0F87  00CB               	movwf	dtoa@n+7
  2809  0F88                     l277:	
  2810                           ;C:\Program Files (x86)\Microchip\xc8\v2.10\pic\sources\c99\common\doprnt.c: 305:     }
  2811                           
  2812                           
  2813                           ;C:\Program Files (x86)\Microchip\xc8\v2.10\pic\sources\c99\common\doprnt.c: 299:     wh
      +                          ile (!(i < 1) && (n || (0 < p) || ((0 < w) && (flags & (1 << 1))))) {
  2814  0F88  0020               	movlb	0	; select bank0
  2815  0F89  084D               	movf	dtoa@i+1,w
  2816  0F8A  3A80               	xorlw	128
  2817  0F8B  00B8               	movwf	??_dtoa
  2818  0F8C  3080               	movlw	128
  2819  0F8D  0238               	subwf	??_dtoa,w
  2820  0F8E  1D03               	skipz
  2821  0F8F  2F92               	goto	u2265
  2822  0F90  3001               	movlw	1
  2823  0F91  024C               	subwf	dtoa@i,w
  2824  0F92                     u2265:	
  2825  0F92  1C03               	skipc
  2826  0F93  2F95               	goto	u2261
  2827  0F94  2F96               	goto	u2260
  2828  0F95                     u2261:	
  2829  0F95  2FC3               	goto	l2121
  2830  0F96                     u2260:	
  2831  0F96                     l2113:	
  2832  0F96  0020               	movlb	0	; select bank0
  2833  0F97  0844               	movf	dtoa@n,w
  2834  0F98  0445               	iorwf	dtoa@n+1,w
  2835  0F99  0446               	iorwf	dtoa@n+2,w
  2836  0F9A  0447               	iorwf	dtoa@n+3,w
  2837  0F9B  0448               	iorwf	dtoa@n+4,w
  2838  0F9C  0449               	iorwf	dtoa@n+5,w
  2839  0F9D  044A               	iorwf	dtoa@n+6,w
  2840  0F9E  044B               	iorwf	dtoa@n+7,w
  2841  0F9F  1D03               	skipz
  2842  0FA0  2FA2               	goto	u2271
  2843  0FA1  2FA3               	goto	u2270
  2844  0FA2                     u2271:	
  2845  0FA2  2F1F               	goto	l2103
  2846  0FA3                     u2270:	
  2847  0FA3                     l2115:	
  2848  0FA3  083F               	movf	dtoa@p+1,w
  2849  0FA4  3A80               	xorlw	128
  2850  0FA5  00B8               	movwf	??_dtoa
  2851  0FA6  3080               	movlw	128
  2852  0FA7  0238               	subwf	??_dtoa,w
  2853  0FA8  1D03               	skipz
  2854  0FA9  2FAC               	goto	u2285
  2855  0FAA  3001               	movlw	1
  2856  0FAB  023E               	subwf	dtoa@p,w
  2857  0FAC                     u2285:	
  2858  0FAC  1803               	skipnc
  2859  0FAD  2FAF               	goto	u2281
  2860  0FAE  2FB0               	goto	u2280
  2861  0FAF                     u2281:	
  2862  0FAF  2F1F               	goto	l2103
  2863  0FB0                     u2280:	
  2864  0FB0                     l2117:	
  2865  0FB0  0020               	movlb	0	; select bank0
  2866  0FB1  0841               	movf	dtoa@w+1,w
  2867  0FB2  3A80               	xorlw	128
  2868  0FB3  00B8               	movwf	??_dtoa
  2869  0FB4  3080               	movlw	128
  2870  0FB5  0238               	subwf	??_dtoa,w
  2871  0FB6  1D03               	skipz
  2872  0FB7  2FBA               	goto	u2295
  2873  0FB8  3001               	movlw	1
  2874  0FB9  0240               	subwf	dtoa@w,w
  2875  0FBA                     u2295:	
  2876  0FBA  1C03               	skipc
  2877  0FBB  2FBD               	goto	u2291
  2878  0FBC  2FBE               	goto	u2290
  2879  0FBD                     u2291:	
  2880  0FBD  2FC3               	goto	l2121
  2881  0FBE                     u2290:	
  2882  0FBE                     l2119:	
  2883  0FBE  0021               	movlb	1	; select bank1
  2884  0FBF  18D0               	btfsc	_flags^(0+128),1
  2885  0FC0  2FC2               	goto	u2301
  2886  0FC1  2FC3               	goto	u2300
  2887  0FC2                     u2301:	
  2888  0FC2  2F1F               	goto	l2103
  2889  0FC3                     u2300:	
  2890  0FC3                     l2121:	
  2891                           
  2892                           ;C:\Program Files (x86)\Microchip\xc8\v2.10\pic\sources\c99\common\doprnt.c: 308:     if
      +                           (s || (flags & (1 << 2))) {
  2893  0FC3  0020               	movlb	0	; select bank0
  2894  0FC4  0842               	movf	dtoa@s,w
  2895  0FC5  0443               	iorwf	dtoa@s+1,w
  2896  0FC6  1D03               	btfss	3,2
  2897  0FC7  2FC9               	goto	u2311
  2898  0FC8  2FCA               	goto	u2310
  2899  0FC9                     u2311:	
  2900  0FC9  2FCF               	goto	l2125
  2901  0FCA                     u2310:	
  2902  0FCA                     l2123:	
  2903  0FCA  0021               	movlb	1	; select bank1
  2904  0FCB  1D50               	btfss	_flags^(0+128),2
  2905  0FCC  2FCE               	goto	u2321
  2906  0FCD  2FCF               	goto	u2320
  2907  0FCE                     u2321:	
  2908  0FCE  2FEC               	goto	l2135
  2909  0FCF                     u2320:	
  2910  0FCF                     l2125:	
  2911                           
  2912                           ;C:\Program Files (x86)\Microchip\xc8\v2.10\pic\sources\c99\common\doprnt.c: 309:       
      +                            --i;
  2913  0FCF  30FF               	movlw	255
  2914  0FD0  0020               	movlb	0	; select bank0
  2915  0FD1  07CC               	addwf	dtoa@i,f
  2916  0FD2  30FF               	movlw	255
  2917  0FD3  3DCD               	addwfc	dtoa@i+1,f
  2918  0FD4                     l2127:	
  2919                           
  2920                           ;C:\Program Files (x86)\Microchip\xc8\v2.10\pic\sources\c99\common\doprnt.c: 310:       
      +                            dbuf[i] = s ? '-' : '+';
  2921  0FD4  0842               	movf	dtoa@s,w
  2922  0FD5  0443               	iorwf	dtoa@s+1,w
  2923  0FD6  1D03               	btfss	3,2
  2924  0FD7  2FD9               	goto	u2331
  2925  0FD8  2FDA               	goto	u2330
  2926  0FD9                     u2331:	
  2927  0FD9  2FDF               	goto	l2131
  2928  0FDA                     u2330:	
  2929  0FDA                     l2129:	
  2930  0FDA  302B               	movlw	43
  2931  0FDB  00BB               	movwf	_dtoa$509
  2932  0FDC  3000               	movlw	0
  2933  0FDD  00BC               	movwf	_dtoa$509+1
  2934  0FDE  2FE3               	goto	l2133
  2935  0FDF                     l2131:	
  2936  0FDF  302D               	movlw	45
  2937  0FE0  00BB               	movwf	_dtoa$509
  2938  0FE1  3000               	movlw	0
  2939  0FE2  00BC               	movwf	_dtoa$509+1
  2940  0FE3                     l2133:	
  2941  0FE3  083B               	movf	_dtoa$509,w
  2942  0FE4  00B8               	movwf	??_dtoa
  2943  0FE5  084C               	movf	dtoa@i,w
  2944  0FE6  3E20               	addlw	(low (_dbuf| (0+256)))& (0+255)
  2945  0FE7  0086               	movwf	6
  2946  0FE8  3001               	movlw	1	; select bank2/3
  2947  0FE9  0087               	movwf	7
  2948  0FEA  0838               	movf	??_dtoa,w
  2949  0FEB  0081               	movwf	1
  2950  0FEC                     l2135:	
  2951                           
  2952                           ;C:\Program Files (x86)\Microchip\xc8\v2.10\pic\sources\c99\common\doprnt.c: 314:     re
      +                          turn pad(fp, &dbuf[i], w);
  2953  0FEC  0020               	movlb	0	; select bank0
  2954  0FED  084C               	movf	dtoa@i,w
  2955  0FEE  3E20               	addlw	(low (_dbuf| (0+256)))& (0+255)
  2956  0FEF  00B8               	movwf	??_dtoa
  2957  0FF0  0838               	movf	??_dtoa,w
  2958  0FF1  00A4               	movwf	pad@buf
  2959  0FF2  0841               	movf	dtoa@w+1,w
  2960  0FF3  00A6               	movwf	pad@p+1
  2961  0FF4  0840               	movf	dtoa@w,w
  2962  0FF5  00A5               	movwf	pad@p
  2963  0FF6  083D               	movf	dtoa@fp,w
  2964  0FF7  3189  2148  318E   	fcall	_pad
  2965  0FFA  0020               	movlb	0	; select bank0
  2966  0FFB  0825               	movf	?_pad+1,w
  2967  0FFC  00B1               	movwf	?_dtoa+1
  2968  0FFD  0824               	movf	?_pad,w
  2969  0FFE  00B0               	movwf	?_dtoa
  2970  0FFF                     l291:	
  2971  0FFF  0008               	return
  2972  1000                     __end_of_dtoa:	
  2973                           
  2974                           	psect	text5
  2975  0948                     __ptext5:	
  2976 ;; *************** function _pad *****************
  2977 ;; Defined at:
  2978 ;;		line 72 in file "C:\Program Files (x86)\Microchip\xc8\v2.10\pic\sources\c99\common\doprnt.c"
  2979 ;; Parameters:    Size  Location     Type
  2980 ;;  fp              1    wreg     PTR struct _IO_FILE
  2981 ;;		 -> sprintf@f(5), 
  2982 ;;  buf             1    4[BANK0 ] PTR unsigned char 
  2983 ;;		 -> dbuf(32), 
  2984 ;;  p               2    5[BANK0 ] int 
  2985 ;; Auto vars:     Size  Location     Type
  2986 ;;  fp              1   11[BANK0 ] PTR struct _IO_FILE
  2987 ;;		 -> sprintf@f(5), 
  2988 ;;  w               2    9[BANK0 ] int 
  2989 ;;  i               2    7[BANK0 ] int 
  2990 ;; Return value:  Size  Location     Type
  2991 ;;                  2    4[BANK0 ] int 
  2992 ;; Registers used:
  2993 ;;		wreg, fsr0l, fsr0h, fsr1l, fsr1h, status,2, status,0, pclath, cstack
  2994 ;; Tracked objects:
  2995 ;;		On entry : 0/0
  2996 ;;		On exit  : 0/0
  2997 ;;		Unchanged: 0/0
  2998 ;; Data sizes:     COMMON   BANK0   BANK1   BANK2   BANK3   BANK4   BANK5   BANK6   BANK7   BANK8   BANK9  BANK10  BANK1
      +1  BANK12
  2999 ;;      Params:         0       3       0       0       0       0       0       0       0       0       0       0       
      +0       0
  3000 ;;      Locals:         0       5       0       0       0       0       0       0       0       0       0       0       
      +0       0
  3001 ;;      Temps:          1       0       0       0       0       0       0       0       0       0       0       0       
      +0       0
  3002 ;;      Totals:         1       8       0       0       0       0       0       0       0       0       0       0       
      +0       0
  3003 ;;Total ram usage:        9 bytes
  3004 ;; Hardware stack levels used:    1
  3005 ;; Hardware stack levels required when called:    3
  3006 ;; This function calls:
  3007 ;;		_fputc
  3008 ;;		_fputs
  3009 ;;		_strlen
  3010 ;; This function is called by:
  3011 ;;		_dtoa
  3012 ;; This function uses a non-reentrant model
  3013 ;;
  3014                           
  3015                           
  3016                           ;psect for function _pad
  3017  0948                     _pad:	
  3018                           
  3019                           ;incstack = 0
  3020                           ; Regs used in _pad: [wreg-fsr1h+status,2+status,0+pclath+cstack]
  3021                           ;pad@fp stored from wreg
  3022  0948  0020               	movlb	0	; select bank0
  3023  0949  00AB               	movwf	pad@fp
  3024  094A                     l1957:	
  3025                           
  3026                           ;C:\Program Files (x86)\Microchip\xc8\v2.10\pic\sources\c99\common\doprnt.c: 72: static 
      +                          int pad(FILE *fp, char *buf, int p);C:\Program Files (x86)\Microchip\xc8\v2.10\pic\sourc
      +                          es\c99\common\doprnt.c: 73: {;C:\Program Files (x86)\Microchip\xc8\v2.10\pic\sources\c99
      +                          \common\doprnt.c: 74:     int i, w;;C:\Program Files (x86)\Microchip\xc8\v2.10\pic\sourc
      +                          es\c99\common\doprnt.c: 77:     if (flags & (1 << 0)) {
  3027  094A  0021               	movlb	1	; select bank1
  3028  094B  1C50               	btfss	_flags^(0+128),0
  3029  094C  294E               	goto	u1841
  3030  094D  294F               	goto	u1840
  3031  094E                     u1841:	
  3032  094E  2958               	goto	l1961
  3033  094F                     u1840:	
  3034  094F                     l1959:	
  3035                           
  3036                           ;C:\Program Files (x86)\Microchip\xc8\v2.10\pic\sources\c99\common\doprnt.c: 78:        
      +                           fputs((const char *)buf, fp);
  3037  094F  0020               	movlb	0	; select bank0
  3038  0950  082B               	movf	pad@fp,w
  3039  0951  00FC               	movwf	??_pad
  3040  0952  087C               	movf	??_pad,w
  3041  0953  00F8               	movwf	fputs@fp
  3042  0954  0824               	movf	pad@buf,w
  3043  0955  3188  2056  3189   	fcall	_fputs
  3044  0958                     l1961:	
  3045                           
  3046                           ;C:\Program Files (x86)\Microchip\xc8\v2.10\pic\sources\c99\common\doprnt.c: 82:     w =
      +                           (p < 0) ? 0 : p;
  3047  0958  0020               	movlb	0	; select bank0
  3048  0959  1BA6               	btfsc	pad@p+1,7
  3049  095A  295C               	goto	u1851
  3050  095B  295D               	goto	u1850
  3051  095C                     u1851:	
  3052  095C  2962               	goto	l1965
  3053  095D                     u1850:	
  3054  095D                     l1963:	
  3055  095D  0826               	movf	pad@p+1,w
  3056  095E  00AA               	movwf	pad@w+1
  3057  095F  0825               	movf	pad@p,w
  3058  0960  00A9               	movwf	pad@w
  3059  0961  2964               	goto	l260
  3060  0962                     l1965:	
  3061  0962  01A9               	clrf	pad@w
  3062  0963  01AA               	clrf	pad@w+1
  3063  0964                     l260:	
  3064                           
  3065                           ;C:\Program Files (x86)\Microchip\xc8\v2.10\pic\sources\c99\common\doprnt.c: 83:     i =
      +                           0;
  3066  0964  01A7               	clrf	pad@i
  3067  0965  01A8               	clrf	pad@i+1
  3068                           
  3069                           ;C:\Program Files (x86)\Microchip\xc8\v2.10\pic\sources\c99\common\doprnt.c: 84:     whi
      +                          le (i < w) {
  3070  0966  2978               	goto	l1971
  3071  0967                     l1967:	
  3072                           
  3073                           ;C:\Program Files (x86)\Microchip\xc8\v2.10\pic\sources\c99\common\doprnt.c: 85:        
      +                           fputc(' ', fp);
  3074  0967  3020               	movlw	32
  3075  0968  00F0               	movwf	fputc@c
  3076  0969  3000               	movlw	0
  3077  096A  00F1               	movwf	fputc@c+1
  3078  096B  0020               	movlb	0	; select bank0
  3079  096C  082B               	movf	pad@fp,w
  3080  096D  00FC               	movwf	??_pad
  3081  096E  087C               	movf	??_pad,w
  3082  096F  00F2               	movwf	fputc@fp
  3083  0970  3188  20F9  3189   	fcall	_fputc
  3084  0973                     l1969:	
  3085                           
  3086                           ;C:\Program Files (x86)\Microchip\xc8\v2.10\pic\sources\c99\common\doprnt.c: 86:        
      +                           ++i;
  3087  0973  3001               	movlw	1
  3088  0974  0020               	movlb	0	; select bank0
  3089  0975  07A7               	addwf	pad@i,f
  3090  0976  3000               	movlw	0
  3091  0977  3DA8               	addwfc	pad@i+1,f
  3092  0978                     l1971:	
  3093                           
  3094                           ;C:\Program Files (x86)\Microchip\xc8\v2.10\pic\sources\c99\common\doprnt.c: 84:     whi
      +                          le (i < w) {
  3095  0978  0828               	movf	pad@i+1,w
  3096  0979  3A80               	xorlw	128
  3097  097A  00FC               	movwf	??_pad
  3098  097B  082A               	movf	pad@w+1,w
  3099  097C  3A80               	xorlw	128
  3100  097D  027C               	subwf	??_pad,w
  3101  097E  1D03               	skipz
  3102  097F  2982               	goto	u1865
  3103  0980  0829               	movf	pad@w,w
  3104  0981  0227               	subwf	pad@i,w
  3105  0982                     u1865:	
  3106  0982  1C03               	skipc
  3107  0983  2985               	goto	u1861
  3108  0984  2986               	goto	u1860
  3109  0985                     u1861:	
  3110  0985  2967               	goto	l1967
  3111  0986                     u1860:	
  3112  0986                     l263:	
  3113                           
  3114                           ;C:\Program Files (x86)\Microchip\xc8\v2.10\pic\sources\c99\common\doprnt.c: 90:     if 
      +                          (!(flags & (1 << 0))) {
  3115  0986  0021               	movlb	1	; select bank1
  3116  0987  1850               	btfsc	_flags^(0+128),0
  3117  0988  298A               	goto	u1871
  3118  0989  298B               	goto	u1870
  3119  098A                     u1871:	
  3120  098A  2994               	goto	l1975
  3121  098B                     u1870:	
  3122  098B                     l1973:	
  3123                           
  3124                           ;C:\Program Files (x86)\Microchip\xc8\v2.10\pic\sources\c99\common\doprnt.c: 91:        
      +                           fputs((const char *)buf, fp);
  3125  098B  0020               	movlb	0	; select bank0
  3126  098C  082B               	movf	pad@fp,w
  3127  098D  00FC               	movwf	??_pad
  3128  098E  087C               	movf	??_pad,w
  3129  098F  00F8               	movwf	fputs@fp
  3130  0990  0824               	movf	pad@buf,w
  3131  0991  3188  2056  3189   	fcall	_fputs
  3132  0994                     l1975:	
  3133                           
  3134                           ;C:\Program Files (x86)\Microchip\xc8\v2.10\pic\sources\c99\common\doprnt.c: 94:     ret
      +                          urn strlen(buf) + w;
  3135  0994  0020               	movlb	0	; select bank0
  3136  0995  0824               	movf	pad@buf,w
  3137  0996  3197  27A6  3189   	fcall	_strlen
  3138  0999  0020               	movlb	0	; select bank0
  3139  099A  0829               	movf	pad@w,w
  3140  099B  0770               	addwf	?_strlen,w
  3141  099C  00A4               	movwf	?_pad
  3142  099D  082A               	movf	pad@w+1,w
  3143  099E  3D71               	addwfc	?_strlen+1,w
  3144  099F  00A5               	movwf	?_pad+1
  3145  09A0                     l265:	
  3146  09A0  0008               	return
  3147  09A1                     __end_of_pad:	
  3148                           
  3149                           	psect	text6
  3150  17A6                     __ptext6:	
  3151 ;; *************** function _strlen *****************
  3152 ;; Defined at:
  3153 ;;		line 5 in file "C:\Program Files (x86)\Microchip\xc8\v2.10\pic\sources\c99\common\strlen.c"
  3154 ;; Parameters:    Size  Location     Type
  3155 ;;  s               1    wreg     PTR const unsigned char 
  3156 ;;		 -> dbuf(32), 
  3157 ;; Auto vars:     Size  Location     Type
  3158 ;;  s               1    4[COMMON] PTR const unsigned char 
  3159 ;;		 -> dbuf(32), 
  3160 ;;  a               1    3[COMMON] PTR const unsigned char 
  3161 ;;		 -> dbuf(32), 
  3162 ;; Return value:  Size  Location     Type
  3163 ;;                  2    0[COMMON] unsigned int 
  3164 ;; Registers used:
  3165 ;;		wreg, fsr1l, fsr1h, status,2, status,0
  3166 ;; Tracked objects:
  3167 ;;		On entry : 0/0
  3168 ;;		On exit  : 0/0
  3169 ;;		Unchanged: 0/0
  3170 ;; Data sizes:     COMMON   BANK0   BANK1   BANK2   BANK3   BANK4   BANK5   BANK6   BANK7   BANK8   BANK9  BANK10  BANK1
      +1  BANK12
  3171 ;;      Params:         2       0       0       0       0       0       0       0       0       0       0       0       
      +0       0
  3172 ;;      Locals:         2       0       0       0       0       0       0       0       0       0       0       0       
      +0       0
  3173 ;;      Temps:          1       0       0       0       0       0       0       0       0       0       0       0       
      +0       0
  3174 ;;      Totals:         5       0       0       0       0       0       0       0       0       0       0       0       
      +0       0
  3175 ;;Total ram usage:        5 bytes
  3176 ;; Hardware stack levels used:    1
  3177 ;; This function calls:
  3178 ;;		Nothing
  3179 ;; This function is called by:
  3180 ;;		_pad
  3181 ;; This function uses a non-reentrant model
  3182 ;;
  3183                           
  3184                           
  3185                           ;psect for function _strlen
  3186  17A6                     _strlen:	
  3187                           
  3188                           ;incstack = 0
  3189                           ; Regs used in _strlen: [wreg+fsr1l+fsr1h+status,2+status,0]
  3190                           ;strlen@s stored from wreg
  3191  17A6  00F4               	movwf	strlen@s
  3192  17A7                     l1947:	
  3193  17A7  0874               	movf	strlen@s,w
  3194  17A8  00F2               	movwf	??_strlen
  3195  17A9  0872               	movf	??_strlen,w
  3196  17AA  00F3               	movwf	strlen@a
  3197  17AB  2FB0               	goto	l1951
  3198  17AC                     l1949:	
  3199  17AC  3001               	movlw	1
  3200  17AD  00F2               	movwf	??_strlen
  3201  17AE  0872               	movf	??_strlen,w
  3202  17AF  07F4               	addwf	strlen@s,f
  3203  17B0                     l1951:	
  3204  17B0  0874               	movf	strlen@s,w
  3205  17B1  0086               	movwf	6
  3206  17B2  3001               	movlw	1	; select bank2/3
  3207  17B3  0087               	movwf	7
  3208  17B4  0801               	movf	1,w
  3209  17B5  1D03               	btfss	3,2
  3210  17B6  2FB8               	goto	u1831
  3211  17B7  2FB9               	goto	u1830
  3212  17B8                     u1831:	
  3213  17B8  2FAC               	goto	l1949
  3214  17B9                     u1830:	
  3215  17B9                     l1953:	
  3216  17B9  0873               	movf	strlen@a,w
  3217  17BA  0274               	subwf	strlen@s,w
  3218  17BB  00F0               	movwf	?_strlen
  3219  17BC  01F1               	clrf	?_strlen+1
  3220  17BD  1BF0               	btfsc	?_strlen,7
  3221  17BE  03F1               	decf	?_strlen+1,f
  3222  17BF                     l869:	
  3223  17BF  0008               	return
  3224  17C0                     __end_of_strlen:	
  3225                           
  3226                           	psect	text7
  3227  0856                     __ptext7:	
  3228 ;; *************** function _fputs *****************
  3229 ;; Defined at:
  3230 ;;		line 8 in file "C:\Program Files (x86)\Microchip\xc8\v2.10\pic\sources\c99\common\nf_fputs.c"
  3231 ;; Parameters:    Size  Location     Type
  3232 ;;  s               1    wreg     PTR const unsigned char 
  3233 ;;		 -> dbuf(32), 
  3234 ;;  fp              1    8[COMMON] PTR struct _IO_FILE
  3235 ;;		 -> sprintf@f(5), 
  3236 ;; Auto vars:     Size  Location     Type
  3237 ;;  s               1    3[BANK0 ] PTR const unsigned char 
  3238 ;;		 -> dbuf(32), 
  3239 ;;  i               2    1[BANK0 ] int 
  3240 ;;  c               1    0[BANK0 ] unsigned char 
  3241 ;; Return value:  Size  Location     Type
  3242 ;;                  2    8[COMMON] int 
  3243 ;; Registers used:
  3244 ;;		wreg, fsr0l, fsr0h, fsr1l, fsr1h, status,2, status,0, pclath, cstack
  3245 ;; Tracked objects:
  3246 ;;		On entry : 0/0
  3247 ;;		On exit  : 0/0
  3248 ;;		Unchanged: 0/0
  3249 ;; Data sizes:     COMMON   BANK0   BANK1   BANK2   BANK3   BANK4   BANK5   BANK6   BANK7   BANK8   BANK9  BANK10  BANK1
      +1  BANK12
  3250 ;;      Params:         1       0       0       0       0       0       0       0       0       0       0       0       
      +0       0
  3251 ;;      Locals:         0       4       0       0       0       0       0       0       0       0       0       0       
      +0       0
  3252 ;;      Temps:          3       0       0       0       0       0       0       0       0       0       0       0       
      +0       0
  3253 ;;      Totals:         4       4       0       0       0       0       0       0       0       0       0       0       
      +0       0
  3254 ;;Total ram usage:        8 bytes
  3255 ;; Hardware stack levels used:    1
  3256 ;; Hardware stack levels required when called:    2
  3257 ;; This function calls:
  3258 ;;		_fputc
  3259 ;; This function is called by:
  3260 ;;		_pad
  3261 ;; This function uses a non-reentrant model
  3262 ;;
  3263                           
  3264                           
  3265                           ;psect for function _fputs
  3266  0856                     _fputs:	
  3267                           
  3268                           ;incstack = 0
  3269                           ; Regs used in _fputs: [wreg-fsr1h+status,2+status,0+pclath+cstack]
  3270                           ;fputs@s stored from wreg
  3271  0856  0020               	movlb	0	; select bank0
  3272  0857  00A3               	movwf	fputs@s
  3273  0858                     l1939:	
  3274  0858  01A1               	clrf	fputs@i
  3275  0859  01A2               	clrf	fputs@i+1
  3276  085A  286E               	goto	l1945
  3277  085B                     l1941:	
  3278  085B  0820               	movf	fputs@c,w
  3279  085C  00F9               	movwf	??_fputs
  3280  085D  01FA               	clrf	??_fputs+1
  3281  085E  0879               	movf	??_fputs,w
  3282  085F  00F0               	movwf	fputc@c
  3283  0860  087A               	movf	??_fputs+1,w
  3284  0861  00F1               	movwf	fputc@c+1
  3285  0862  0878               	movf	fputs@fp,w
  3286  0863  00FB               	movwf	??_fputs+2
  3287  0864  087B               	movf	??_fputs+2,w
  3288  0865  00F2               	movwf	fputc@fp
  3289  0866  3188  20F9  3188   	fcall	_fputc
  3290  0869                     l1943:	
  3291  0869  3001               	movlw	1
  3292  086A  0020               	movlb	0	; select bank0
  3293  086B  07A1               	addwf	fputs@i,f
  3294  086C  3000               	movlw	0
  3295  086D  3DA2               	addwfc	fputs@i+1,f
  3296  086E                     l1945:	
  3297  086E  0821               	movf	fputs@i,w
  3298  086F  0723               	addwf	fputs@s,w
  3299  0870  00F9               	movwf	??_fputs
  3300  0871  0879               	movf	??_fputs,w
  3301  0872  0086               	movwf	6
  3302  0873  3001               	movlw	1	; select bank2/3
  3303  0874  0087               	movwf	7
  3304  0875  0801               	movf	1,w
  3305  0876  00FA               	movwf	??_fputs+1
  3306  0877  087A               	movf	??_fputs+1,w
  3307  0878  00A0               	movwf	fputs@c
  3308  0879  0820               	movf	fputs@c,w
  3309  087A  1D03               	btfss	3,2
  3310  087B  287D               	goto	u1821
  3311  087C  287E               	goto	u1820
  3312  087D                     u1821:	
  3313  087D  285B               	goto	l1941
  3314  087E                     u1820:	
  3315  087E                     l853:	
  3316  087E  0008               	return
  3317  087F                     __end_of_fputs:	
  3318                           
  3319                           	psect	text8
  3320  08F9                     __ptext8:	
  3321 ;; *************** function _fputc *****************
  3322 ;; Defined at:
  3323 ;;		line 8 in file "C:\Program Files (x86)\Microchip\xc8\v2.10\pic\sources\c99\common\nf_fputc.c"
  3324 ;; Parameters:    Size  Location     Type
  3325 ;;  c               2    0[COMMON] int 
  3326 ;;  fp              1    2[COMMON] PTR struct _IO_FILE
  3327 ;;		 -> sprintf@f(5), 
  3328 ;; Auto vars:     Size  Location     Type
  3329 ;;		None
  3330 ;; Return value:  Size  Location     Type
  3331 ;;                  2    0[COMMON] int 
  3332 ;; Registers used:
  3333 ;;		wreg, fsr0l, fsr0h, fsr1l, fsr1h, status,2, status,0, pclath, cstack
  3334 ;; Tracked objects:
  3335 ;;		On entry : 0/0
  3336 ;;		On exit  : 0/0
  3337 ;;		Unchanged: 0/0
  3338 ;; Data sizes:     COMMON   BANK0   BANK1   BANK2   BANK3   BANK4   BANK5   BANK6   BANK7   BANK8   BANK9  BANK10  BANK1
      +1  BANK12
  3339 ;;      Params:         3       0       0       0       0       0       0       0       0       0       0       0       
      +0       0
  3340 ;;      Locals:         0       0       0       0       0       0       0       0       0       0       0       0       
      +0       0
  3341 ;;      Temps:          5       0       0       0       0       0       0       0       0       0       0       0       
      +0       0
  3342 ;;      Totals:         8       0       0       0       0       0       0       0       0       0       0       0       
      +0       0
  3343 ;;Total ram usage:        8 bytes
  3344 ;; Hardware stack levels used:    1
  3345 ;; Hardware stack levels required when called:    1
  3346 ;; This function calls:
  3347 ;;		_putch
  3348 ;; This function is called by:
  3349 ;;		_pad
  3350 ;;		_vfpfcnvrt
  3351 ;;		_fputs
  3352 ;; This function uses a non-reentrant model
  3353 ;;
  3354                           
  3355                           
  3356                           ;psect for function _fputc
  3357  08F9                     _fputc:	
  3358  08F9                     l1923:	
  3359                           ;incstack = 0
  3360                           ; Regs used in _fputc: [wreg-fsr1h+status,2+status,0+pclath+cstack]
  3361                           
  3362  08F9  0872               	movf	fputc@fp,w
  3363  08FA  1903               	btfsc	3,2
  3364  08FB  28FD               	goto	u1781
  3365  08FC  28FE               	goto	u1780
  3366  08FD                     u1781:	
  3367  08FD  2903               	goto	l1927
  3368  08FE                     u1780:	
  3369  08FE                     l1925:	
  3370  08FE  0872               	movf	fputc@fp,w
  3371  08FF  1D03               	btfss	3,2
  3372  0900  2902               	goto	u1791
  3373  0901  2903               	goto	u1790
  3374  0902                     u1791:	
  3375  0902  2908               	goto	l1929
  3376  0903                     u1790:	
  3377  0903                     l1927:	
  3378  0903  0870               	movf	fputc@c,w
  3379  0904  3180  2008  3188   	fcall	_putch
  3380  0907  2947               	goto	l845
  3381  0908                     l1929:	
  3382  0908  0872               	movf	fputc@fp,w
  3383  0909  3E03               	addlw	3
  3384  090A  0086               	movwf	6
  3385  090B  0187               	clrf	7
  3386  090C  0016               	moviw fsr1++
  3387  090D  0401               	iorwf	1,w
  3388  090E  1903               	btfsc	3,2
  3389  090F  2911               	goto	u1801
  3390  0910  2912               	goto	u1800
  3391  0911                     u1801:	
  3392  0911  292F               	goto	l1933
  3393  0912                     u1800:	
  3394  0912                     l1931:	
  3395  0912  0872               	movf	fputc@fp,w
  3396  0913  3E03               	addlw	3
  3397  0914  0086               	movwf	6
  3398  0915  0187               	clrf	7
  3399  0916  3F40               	moviw [0]fsr1
  3400  0917  00F3               	movwf	??_fputc
  3401  0918  3F41               	moviw [1]fsr1
  3402  0919  00F4               	movwf	??_fputc+1
  3403  091A  0A72               	incf	fputc@fp,w
  3404  091B  0086               	movwf	6
  3405  091C  0187               	clrf	7
  3406  091D  3F40               	moviw [0]fsr1
  3407  091E  00F5               	movwf	??_fputc+2
  3408  091F  3F41               	moviw [1]fsr1
  3409  0920  00F6               	movwf	??_fputc+3
  3410  0921  0876               	movf	??_fputc+3,w
  3411  0922  3A80               	xorlw	128
  3412  0923  00F7               	movwf	??_fputc+4
  3413  0924  0874               	movf	??_fputc+1,w
  3414  0925  3A80               	xorlw	128
  3415  0926  0277               	subwf	??_fputc+4,w
  3416  0927  1D03               	skipz
  3417  0928  292B               	goto	u1815
  3418  0929  0873               	movf	??_fputc,w
  3419  092A  0275               	subwf	??_fputc+2,w
  3420  092B                     u1815:	
  3421  092B  1803               	skipnc
  3422  092C  292E               	goto	u1811
  3423  092D  292F               	goto	u1810
  3424  092E                     u1811:	
  3425  092E  2947               	goto	l845
  3426  092F                     u1810:	
  3427  092F                     l1933:	
  3428  092F  0870               	movf	fputc@c,w
  3429  0930  00F3               	movwf	??_fputc
  3430  0931  0872               	movf	fputc@fp,w
  3431  0932  0086               	movwf	6
  3432  0933  0187               	clrf	7
  3433  0934  0A72               	incf	fputc@fp,w
  3434  0935  0084               	movwf	4
  3435  0936  0185               	clrf	5
  3436  0937  0800               	movf	0,w
  3437  0938  0701               	addwf	1,w
  3438  0939  00F4               	movwf	??_fputc+1
  3439  093A  0874               	movf	??_fputc+1,w
  3440  093B  0086               	movwf	6
  3441  093C  0187               	clrf	7
  3442  093D  0873               	movf	??_fputc,w
  3443  093E  0081               	movwf	1
  3444  093F                     l1935:	
  3445  093F  0A72               	incf	fputc@fp,w
  3446  0940  0086               	movwf	6
  3447  0941  0187               	clrf	7
  3448  0942  3001               	movlw	1
  3449  0943  0781               	addwf	1,f
  3450  0944  3141               	addfsr 1,1
  3451  0945  1803               	skipnc
  3452  0946  0A81               	incf	1,f
  3453  0947                     l845:	
  3454  0947  0008               	return
  3455  0948                     __end_of_fputc:	
  3456                           
  3457                           	psect	text9
  3458  0008                     __ptext9:	
  3459 ;; *************** function _putch *****************
  3460 ;; Defined at:
  3461 ;;		line 7 in file "C:\Program Files (x86)\Microchip\xc8\v2.10\pic\sources\c99\common\putch.c"
  3462 ;; Parameters:    Size  Location     Type
  3463 ;;  c               1    wreg     unsigned char 
  3464 ;; Auto vars:     Size  Location     Type
  3465 ;;  c               1    0[COMMON] unsigned char 
  3466 ;; Return value:  Size  Location     Type
  3467 ;;                  1    wreg      void 
  3468 ;; Registers used:
  3469 ;;		wreg
  3470 ;; Tracked objects:
  3471 ;;		On entry : 0/0
  3472 ;;		On exit  : 0/0
  3473 ;;		Unchanged: 0/0
  3474 ;; Data sizes:     COMMON   BANK0   BANK1   BANK2   BANK3   BANK4   BANK5   BANK6   BANK7   BANK8   BANK9  BANK10  BANK1
      +1  BANK12
  3475 ;;      Params:         0       0       0       0       0       0       0       0       0       0       0       0       
      +0       0
  3476 ;;      Locals:         0       0       0       0       0       0       0       0       0       0       0       0       
      +0       0
  3477 ;;      Temps:          0       0       0       0       0       0       0       0       0       0       0       0       
      +0       0
  3478 ;;      Totals:         0       0       0       0       0       0       0       0       0       0       0       0       
      +0       0
  3479 ;;Total ram usage:        0 bytes
  3480 ;; Hardware stack levels used:    1
  3481 ;; This function calls:
  3482 ;;		Nothing
  3483 ;; This function is called by:
  3484 ;;		_fputc
  3485 ;; This function uses a non-reentrant model
  3486 ;;
  3487                           
  3488                           
  3489                           ;psect for function _putch
  3490  0008                     _putch:	
  3491  0008                     l863:	
  3492                           ;incstack = 0
  3493                           ; Regs used in _putch: [wreg]
  3494                           
  3495  0008  0008               	return
  3496  0009                     __end_of_putch:	
  3497                           
  3498                           	psect	text10
  3499  178C                     __ptext10:	
  3500 ;; *************** function _abs *****************
  3501 ;; Defined at:
  3502 ;;		line 1 in file "C:\Program Files (x86)\Microchip\xc8\v2.10\pic\sources\c99\common\abs.c"
  3503 ;; Parameters:    Size  Location     Type
  3504 ;;  a               2    3[COMMON] int 
  3505 ;; Auto vars:     Size  Location     Type
  3506 ;;		None
  3507 ;; Return value:  Size  Location     Type
  3508 ;;                  2    3[COMMON] int 
  3509 ;; Registers used:
  3510 ;;		wreg, status,2, status,0
  3511 ;; Tracked objects:
  3512 ;;		On entry : 0/0
  3513 ;;		On exit  : 0/0
  3514 ;;		Unchanged: 0/0
  3515 ;; Data sizes:     COMMON   BANK0   BANK1   BANK2   BANK3   BANK4   BANK5   BANK6   BANK7   BANK8   BANK9  BANK10  BANK1
      +1  BANK12
  3516 ;;      Params:         2       0       0       0       0       0       0       0       0       0       0       0       
      +0       0
  3517 ;;      Locals:         0       0       0       0       0       0       0       0       0       0       0       0       
      +0       0
  3518 ;;      Temps:          2       0       0       0       0       0       0       0       0       0       0       0       
      +0       0
  3519 ;;      Totals:         4       0       0       0       0       0       0       0       0       0       0       0       
      +0       0
  3520 ;;Total ram usage:        4 bytes
  3521 ;; Hardware stack levels used:    1
  3522 ;; This function calls:
  3523 ;;		Nothing
  3524 ;; This function is called by:
  3525 ;;		_dtoa
  3526 ;; This function uses a non-reentrant model
  3527 ;;
  3528                           
  3529                           
  3530                           ;psect for function _abs
  3531  178C                     _abs:	
  3532  178C                     l1979:	
  3533                           ;incstack = 0
  3534                           ; Regs used in _abs: [wreg+status,2+status,0]
  3535                           
  3536  178C  0874               	movf	abs@a+1,w
  3537  178D  3A80               	xorlw	128
  3538  178E  00F5               	movwf	??_abs
  3539  178F  3080               	movlw	128
  3540  1790  0275               	subwf	??_abs,w
  3541  1791  1D03               	skipz
  3542  1792  2F95               	goto	u1885
  3543  1793  3001               	movlw	1
  3544  1794  0273               	subwf	abs@a,w
  3545  1795                     u1885:	
  3546  1795  1803               	skipnc
  3547  1796  2F98               	goto	u1881
  3548  1797  2F99               	goto	u1880
  3549  1798                     u1881:	
  3550  1798  2FA5               	goto	l785
  3551  1799                     u1880:	
  3552  1799                     l1981:	
  3553  1799  0973               	comf	abs@a,w
  3554  179A  00F5               	movwf	??_abs
  3555  179B  0974               	comf	abs@a+1,w
  3556  179C  00F6               	movwf	??_abs+1
  3557  179D  0AF5               	incf	??_abs,f
  3558  179E  1903               	skipnz
  3559  179F  0AF6               	incf	??_abs+1,f
  3560  17A0  0875               	movf	??_abs,w
  3561  17A1  00F3               	movwf	?_abs
  3562  17A2  0876               	movf	??_abs+1,w
  3563  17A3  00F4               	movwf	?_abs+1
  3564  17A4  2FA5               	goto	l788
  3565  17A5                     l785:	
  3566  17A5                     l788:	
  3567  17A5  0008               	return
  3568  17A6                     __end_of_abs:	
  3569                           
  3570                           	psect	text11
  3571  0CA5                     __ptext11:	
  3572 ;; *************** function ___aomod *****************
  3573 ;; Defined at:
  3574 ;;		line 7 in file "C:\Program Files (x86)\Microchip\xc8\v2.10\pic\sources\c99\common\aomod.c"
  3575 ;; Parameters:    Size  Location     Type
  3576 ;;  divisor         8    0[BANK0 ] long long 
  3577 ;;  dividend        8    8[BANK0 ] long long 
  3578 ;; Auto vars:     Size  Location     Type
  3579 ;;  sign            1    2[COMMON] unsigned char 
  3580 ;;  counter         1    1[COMMON] unsigned char 
  3581 ;; Return value:  Size  Location     Type
  3582 ;;                  8    0[BANK0 ] long long 
  3583 ;; Registers used:
  3584 ;;		wreg, fsr1l, fsr1h, status,2, status,0
  3585 ;; Tracked objects:
  3586 ;;		On entry : 0/0
  3587 ;;		On exit  : 0/0
  3588 ;;		Unchanged: 0/0
  3589 ;; Data sizes:     COMMON   BANK0   BANK1   BANK2   BANK3   BANK4   BANK5   BANK6   BANK7   BANK8   BANK9  BANK10  BANK1
      +1  BANK12
  3590 ;;      Params:         0      16       0       0       0       0       0       0       0       0       0       0       
      +0       0
  3591 ;;      Locals:         2       0       0       0       0       0       0       0       0       0       0       0       
      +0       0
  3592 ;;      Temps:          1       0       0       0       0       0       0       0       0       0       0       0       
      +0       0
  3593 ;;      Totals:         3      16       0       0       0       0       0       0       0       0       0       0       
      +0       0
  3594 ;;Total ram usage:       19 bytes
  3595 ;; Hardware stack levels used:    1
  3596 ;; This function calls:
  3597 ;;		Nothing
  3598 ;; This function is called by:
  3599 ;;		_dtoa
  3600 ;; This function uses a non-reentrant model
  3601 ;;
  3602                           
  3603                           
  3604                           ;psect for function ___aomod
  3605  0CA5                     ___aomod:	
  3606  0CA5                     l2039:	
  3607                           ;incstack = 0
  3608                           ; Regs used in ___aomod: [wreg+fsr1l+fsr1h+status,2+status,0]
  3609                           
  3610  0CA5  01F2               	clrf	___aomod@sign
  3611  0CA6                     l2041:	
  3612  0CA6  3028               	movlw	low ___aomod@dividend
  3613  0CA7  0086               	movwf	6
  3614  0CA8  3000               	movlw	high ___aomod@dividend
  3615  0CA9  0087               	movwf	7
  3616  0CAA  3F47               	moviw [7]fsr1
  3617  0CAB  00F0               	movwf	??___aomod
  3618  0CAC  1FF0               	btfss	??___aomod,7
  3619  0CAD  2CAF               	goto	u2061
  3620  0CAE  2CB0               	goto	u2060
  3621  0CAF                     u2061:	
  3622  0CAF  2CD1               	goto	l2045
  3623  0CB0                     u2060:	
  3624  0CB0                     l2043:	
  3625  0CB0  0020               	movlb	0	; select bank0
  3626  0CB1  09A8               	comf	___aomod@dividend,f
  3627  0CB2  09A9               	comf	___aomod@dividend+1,f
  3628  0CB3  09AA               	comf	___aomod@dividend+2,f
  3629  0CB4  09AB               	comf	___aomod@dividend+3,f
  3630  0CB5  09AC               	comf	___aomod@dividend+4,f
  3631  0CB6  09AD               	comf	___aomod@dividend+5,f
  3632  0CB7  09AE               	comf	___aomod@dividend+6,f
  3633  0CB8  09AF               	comf	___aomod@dividend+7,f
  3634  0CB9  0AA8               	incf	___aomod@dividend,f
  3635  0CBA  1D03               	skipz
  3636  0CBB  2CCF               	goto	u207lld
  3637  0CBC  0AA9               	incf	___aomod@dividend+1,f
  3638  0CBD  1D03               	skipz
  3639  0CBE  2CCF               	goto	u207lld
  3640  0CBF  0AAA               	incf	___aomod@dividend+2,f
  3641  0CC0  1D03               	skipz
  3642  0CC1  2CCF               	goto	u207lld
  3643  0CC2  0AAB               	incf	___aomod@dividend+3,f
  3644  0CC3  1D03               	skipz
  3645  0CC4  2CCF               	goto	u207lld
  3646  0CC5  0AAC               	incf	___aomod@dividend+4,f
  3647  0CC6  1D03               	skipz
  3648  0CC7  2CCF               	goto	u207lld
  3649  0CC8  0AAD               	incf	___aomod@dividend+5,f
  3650  0CC9  1D03               	skipz
  3651  0CCA  2CCF               	goto	u207lld
  3652  0CCB  0AAE               	incf	___aomod@dividend+6,f
  3653  0CCC  1D03               	skipz
  3654  0CCD  2CCF               	goto	u207lld
  3655  0CCE  0AAF               	incf	___aomod@dividend+7,f
  3656  0CCF                     u207lld:	
  3657  0CCF  01F2               	clrf	___aomod@sign
  3658  0CD0  0AF2               	incf	___aomod@sign,f
  3659  0CD1                     l2045:	
  3660  0CD1  3020               	movlw	low ___aomod@divisor
  3661  0CD2  0086               	movwf	6
  3662  0CD3  3000               	movlw	high ___aomod@divisor
  3663  0CD4  0087               	movwf	7
  3664  0CD5  3F47               	moviw [7]fsr1
  3665  0CD6  00F0               	movwf	??___aomod
  3666  0CD7  1FF0               	btfss	??___aomod,7
  3667  0CD8  2CDA               	goto	u2081
  3668  0CD9  2CDB               	goto	u2080
  3669  0CDA                     u2081:	
  3670  0CDA  2CFA               	goto	l2049
  3671  0CDB                     u2080:	
  3672  0CDB                     l2047:	
  3673  0CDB  0020               	movlb	0	; select bank0
  3674  0CDC  09A0               	comf	___aomod@divisor,f
  3675  0CDD  09A1               	comf	___aomod@divisor+1,f
  3676  0CDE  09A2               	comf	___aomod@divisor+2,f
  3677  0CDF  09A3               	comf	___aomod@divisor+3,f
  3678  0CE0  09A4               	comf	___aomod@divisor+4,f
  3679  0CE1  09A5               	comf	___aomod@divisor+5,f
  3680  0CE2  09A6               	comf	___aomod@divisor+6,f
  3681  0CE3  09A7               	comf	___aomod@divisor+7,f
  3682  0CE4  0AA0               	incf	___aomod@divisor,f
  3683  0CE5  1D03               	skipz
  3684  0CE6  2CFA               	goto	u209lld
  3685  0CE7  0AA1               	incf	___aomod@divisor+1,f
  3686  0CE8  1D03               	skipz
  3687  0CE9  2CFA               	goto	u209lld
  3688  0CEA  0AA2               	incf	___aomod@divisor+2,f
  3689  0CEB  1D03               	skipz
  3690  0CEC  2CFA               	goto	u209lld
  3691  0CED  0AA3               	incf	___aomod@divisor+3,f
  3692  0CEE  1D03               	skipz
  3693  0CEF  2CFA               	goto	u209lld
  3694  0CF0  0AA4               	incf	___aomod@divisor+4,f
  3695  0CF1  1D03               	skipz
  3696  0CF2  2CFA               	goto	u209lld
  3697  0CF3  0AA5               	incf	___aomod@divisor+5,f
  3698  0CF4  1D03               	skipz
  3699  0CF5  2CFA               	goto	u209lld
  3700  0CF6  0AA6               	incf	___aomod@divisor+6,f
  3701  0CF7  1D03               	skipz
  3702  0CF8  2CFA               	goto	u209lld
  3703  0CF9  0AA7               	incf	___aomod@divisor+7,f
  3704  0CFA                     u209lld:	
  3705  0CFA                     l2049:	
  3706  0CFA  0020               	movlb	0	; select bank0
  3707  0CFB  0820               	movf	___aomod@divisor,w
  3708  0CFC  0421               	iorwf	___aomod@divisor+1,w
  3709  0CFD  0422               	iorwf	___aomod@divisor+2,w
  3710  0CFE  0423               	iorwf	___aomod@divisor+3,w
  3711  0CFF  0424               	iorwf	___aomod@divisor+4,w
  3712  0D00  0425               	iorwf	___aomod@divisor+5,w
  3713  0D01  0426               	iorwf	___aomod@divisor+6,w
  3714  0D02  0427               	iorwf	___aomod@divisor+7,w
  3715  0D03  1903               	skipnz
  3716  0D04  2D06               	goto	u2101
  3717  0D05  2D07               	goto	u2100
  3718  0D06                     u2101:	
  3719  0D06  2D5A               	goto	l2065
  3720  0D07                     u2100:	
  3721  0D07                     l2051:	
  3722  0D07  01F1               	clrf	___aomod@counter
  3723  0D08  0AF1               	incf	___aomod@counter,f
  3724  0D09  2D16               	goto	l2057
  3725  0D0A                     l2053:	
  3726  0D0A  35A0               	lslf	___aomod@divisor,f
  3727  0D0B  0DA1               	rlf	___aomod@divisor+1,f
  3728  0D0C  0DA2               	rlf	___aomod@divisor+2,f
  3729  0D0D  0DA3               	rlf	___aomod@divisor+3,f
  3730  0D0E  0DA4               	rlf	___aomod@divisor+4,f
  3731  0D0F  0DA5               	rlf	___aomod@divisor+5,f
  3732  0D10  0DA6               	rlf	___aomod@divisor+6,f
  3733  0D11  0DA7               	rlf	___aomod@divisor+7,f
  3734  0D12                     l2055:	
  3735  0D12  3001               	movlw	1
  3736  0D13  00F0               	movwf	??___aomod
  3737  0D14  0870               	movf	??___aomod,w
  3738  0D15  07F1               	addwf	___aomod@counter,f
  3739  0D16                     l2057:	
  3740  0D16  1FA7               	btfss	___aomod@divisor+7,7
  3741  0D17  2D19               	goto	u2111
  3742  0D18  2D1A               	goto	u2110
  3743  0D19                     u2111:	
  3744  0D19  2D0A               	goto	l2053
  3745  0D1A                     u2110:	
  3746  0D1A                     l2059:	
  3747  0D1A  0827               	movf	___aomod@divisor+7,w
  3748  0D1B  022F               	subwf	___aomod@dividend+7,w
  3749  0D1C  1D03               	skipz
  3750  0D1D  2D38               	goto	u2125
  3751  0D1E  0826               	movf	___aomod@divisor+6,w
  3752  0D1F  022E               	subwf	___aomod@dividend+6,w
  3753  0D20  1D03               	skipz
  3754  0D21  2D38               	goto	u2125
  3755  0D22  0825               	movf	___aomod@divisor+5,w
  3756  0D23  022D               	subwf	___aomod@dividend+5,w
  3757  0D24  1D03               	skipz
  3758  0D25  2D38               	goto	u2125
  3759  0D26  0824               	movf	___aomod@divisor+4,w
  3760  0D27  022C               	subwf	___aomod@dividend+4,w
  3761  0D28  1D03               	skipz
  3762  0D29  2D38               	goto	u2125
  3763  0D2A  0823               	movf	___aomod@divisor+3,w
  3764  0D2B  022B               	subwf	___aomod@dividend+3,w
  3765  0D2C  1D03               	skipz
  3766  0D2D  2D38               	goto	u2125
  3767  0D2E  0822               	movf	___aomod@divisor+2,w
  3768  0D2F  022A               	subwf	___aomod@dividend+2,w
  3769  0D30  1D03               	skipz
  3770  0D31  2D38               	goto	u2125
  3771  0D32  0821               	movf	___aomod@divisor+1,w
  3772  0D33  0229               	subwf	___aomod@dividend+1,w
  3773  0D34  1D03               	skipz
  3774  0D35  2D38               	goto	u2125
  3775  0D36  0820               	movf	___aomod@divisor,w
  3776  0D37  0228               	subwf	___aomod@dividend,w
  3777  0D38                     u2125:	
  3778  0D38  1C03               	skipc
  3779  0D39  2D3B               	goto	u2121
  3780  0D3A  2D3C               	goto	u2120
  3781  0D3B                     u2121:	
  3782  0D3B  2D4C               	goto	l2063
  3783  0D3C                     u2120:	
  3784  0D3C                     l2061:	
  3785  0D3C  0820               	movf	___aomod@divisor,w
  3786  0D3D  02A8               	subwf	___aomod@dividend,f
  3787  0D3E  0821               	movf	___aomod@divisor+1,w
  3788  0D3F  3BA9               	subwfb	___aomod@dividend+1,f
  3789  0D40  0822               	movf	___aomod@divisor+2,w
  3790  0D41  3BAA               	subwfb	___aomod@dividend+2,f
  3791  0D42  0823               	movf	___aomod@divisor+3,w
  3792  0D43  3BAB               	subwfb	___aomod@dividend+3,f
  3793  0D44  0824               	movf	___aomod@divisor+4,w
  3794  0D45  3BAC               	subwfb	___aomod@dividend+4,f
  3795  0D46  0825               	movf	___aomod@divisor+5,w
  3796  0D47  3BAD               	subwfb	___aomod@dividend+5,f
  3797  0D48  0826               	movf	___aomod@divisor+6,w
  3798  0D49  3BAE               	subwfb	___aomod@dividend+6,f
  3799  0D4A  0827               	movf	___aomod@divisor+7,w
  3800  0D4B  3BAF               	subwfb	___aomod@dividend+7,f
  3801  0D4C                     l2063:	
  3802  0D4C  36A7               	lsrf	___aomod@divisor+7,f
  3803  0D4D  0CA6               	rrf	___aomod@divisor+6,f
  3804  0D4E  0CA5               	rrf	___aomod@divisor+5,f
  3805  0D4F  0CA4               	rrf	___aomod@divisor+4,f
  3806  0D50  0CA3               	rrf	___aomod@divisor+3,f
  3807  0D51  0CA2               	rrf	___aomod@divisor+2,f
  3808  0D52  0CA1               	rrf	___aomod@divisor+1,f
  3809  0D53  0CA0               	rrf	___aomod@divisor,f
  3810  0D54  3001               	movlw	1
  3811  0D55  02F1               	subwf	___aomod@counter,f
  3812  0D56  1D03               	btfss	3,2
  3813  0D57  2D59               	goto	u2131
  3814  0D58  2D5A               	goto	u2130
  3815  0D59                     u2131:	
  3816  0D59  2D1A               	goto	l2059
  3817  0D5A                     u2130:	
  3818  0D5A                     l2065:	
  3819  0D5A  0872               	movf	___aomod@sign,w
  3820  0D5B  1903               	btfsc	3,2
  3821  0D5C  2D5E               	goto	u2141
  3822  0D5D  2D5F               	goto	u2140
  3823  0D5E                     u2141:	
  3824  0D5E  2D7D               	goto	l444
  3825  0D5F                     u2140:	
  3826  0D5F                     l2067:	
  3827  0D5F  09A8               	comf	___aomod@dividend,f
  3828  0D60  09A9               	comf	___aomod@dividend+1,f
  3829  0D61  09AA               	comf	___aomod@dividend+2,f
  3830  0D62  09AB               	comf	___aomod@dividend+3,f
  3831  0D63  09AC               	comf	___aomod@dividend+4,f
  3832  0D64  09AD               	comf	___aomod@dividend+5,f
  3833  0D65  09AE               	comf	___aomod@dividend+6,f
  3834  0D66  09AF               	comf	___aomod@dividend+7,f
  3835  0D67  0AA8               	incf	___aomod@dividend,f
  3836  0D68  1D03               	skipz
  3837  0D69  2D7D               	goto	u215lld
  3838  0D6A  0AA9               	incf	___aomod@dividend+1,f
  3839  0D6B  1D03               	skipz
  3840  0D6C  2D7D               	goto	u215lld
  3841  0D6D  0AAA               	incf	___aomod@dividend+2,f
  3842  0D6E  1D03               	skipz
  3843  0D6F  2D7D               	goto	u215lld
  3844  0D70  0AAB               	incf	___aomod@dividend+3,f
  3845  0D71  1D03               	skipz
  3846  0D72  2D7D               	goto	u215lld
  3847  0D73  0AAC               	incf	___aomod@dividend+4,f
  3848  0D74  1D03               	skipz
  3849  0D75  2D7D               	goto	u215lld
  3850  0D76  0AAD               	incf	___aomod@dividend+5,f
  3851  0D77  1D03               	skipz
  3852  0D78  2D7D               	goto	u215lld
  3853  0D79  0AAE               	incf	___aomod@dividend+6,f
  3854  0D7A  1D03               	skipz
  3855  0D7B  2D7D               	goto	u215lld
  3856  0D7C  0AAF               	incf	___aomod@dividend+7,f
  3857  0D7D                     u215lld:	
  3858  0D7D                     l444:	
  3859  0D7D  0020               	movlb	0	; select bank0
  3860  0D7E  0828               	movf	___aomod@dividend,w
  3861  0D7F  00A0               	movwf	?___aomod
  3862  0D80  0829               	movf	___aomod@dividend+1,w
  3863  0D81  00A1               	movwf	?___aomod+1
  3864  0D82  082A               	movf	___aomod@dividend+2,w
  3865  0D83  00A2               	movwf	?___aomod+2
  3866  0D84  082B               	movf	___aomod@dividend+3,w
  3867  0D85  00A3               	movwf	?___aomod+3
  3868  0D86  082C               	movf	___aomod@dividend+4,w
  3869  0D87  00A4               	movwf	?___aomod+4
  3870  0D88  082D               	movf	___aomod@dividend+5,w
  3871  0D89  00A5               	movwf	?___aomod+5
  3872  0D8A  082E               	movf	___aomod@dividend+6,w
  3873  0D8B  00A6               	movwf	?___aomod+6
  3874  0D8C  082F               	movf	___aomod@dividend+7,w
  3875  0D8D  00A7               	movwf	?___aomod+7
  3876  0D8E                     l445:	
  3877  0D8E  0008               	return
  3878  0D8F                     __end_of___aomod:	
  3879                           
  3880                           	psect	text12
  3881  0D8F                     __ptext12:	
  3882 ;; *************** function ___aodiv *****************
  3883 ;; Defined at:
  3884 ;;		line 7 in file "C:\Program Files (x86)\Microchip\xc8\v2.10\pic\sources\c99\common\aodiv.c"
  3885 ;; Parameters:    Size  Location     Type
  3886 ;;  divisor         8    0[BANK0 ] long long 
  3887 ;;  dividend        8    8[BANK0 ] long long 
  3888 ;; Auto vars:     Size  Location     Type
  3889 ;;  quotient        8    3[COMMON] long long 
  3890 ;;  sign            1    2[COMMON] unsigned char 
  3891 ;;  counter         1    1[COMMON] unsigned char 
  3892 ;; Return value:  Size  Location     Type
  3893 ;;                  8    0[BANK0 ] long long 
  3894 ;; Registers used:
  3895 ;;		wreg, fsr1l, fsr1h, status,2, status,0
  3896 ;; Tracked objects:
  3897 ;;		On entry : 0/0
  3898 ;;		On exit  : 0/0
  3899 ;;		Unchanged: 0/0
  3900 ;; Data sizes:     COMMON   BANK0   BANK1   BANK2   BANK3   BANK4   BANK5   BANK6   BANK7   BANK8   BANK9  BANK10  BANK1
      +1  BANK12
  3901 ;;      Params:         0      16       0       0       0       0       0       0       0       0       0       0       
      +0       0
  3902 ;;      Locals:        10       0       0       0       0       0       0       0       0       0       0       0       
      +0       0
  3903 ;;      Temps:          1       0       0       0       0       0       0       0       0       0       0       0       
      +0       0
  3904 ;;      Totals:        11      16       0       0       0       0       0       0       0       0       0       0       
      +0       0
  3905 ;;Total ram usage:       27 bytes
  3906 ;; Hardware stack levels used:    1
  3907 ;; This function calls:
  3908 ;;		Nothing
  3909 ;; This function is called by:
  3910 ;;		_dtoa
  3911 ;; This function uses a non-reentrant model
  3912 ;;
  3913                           
  3914                           
  3915                           ;psect for function ___aodiv
  3916  0D8F                     ___aodiv:	
  3917  0D8F                     l2001:	
  3918                           ;incstack = 0
  3919                           ; Regs used in ___aodiv: [wreg+fsr1l+fsr1h+status,2+status,0]
  3920                           
  3921  0D8F  01F2               	clrf	___aodiv@sign
  3922  0D90                     l2003:	
  3923  0D90  3020               	movlw	low ___aodiv@divisor
  3924  0D91  0086               	movwf	6
  3925  0D92  3000               	movlw	high ___aodiv@divisor
  3926  0D93  0087               	movwf	7
  3927  0D94  3F47               	moviw [7]fsr1
  3928  0D95  00F0               	movwf	??___aodiv
  3929  0D96  1FF0               	btfss	??___aodiv,7
  3930  0D97  2D99               	goto	u1951
  3931  0D98  2D9A               	goto	u1950
  3932  0D99                     u1951:	
  3933  0D99  2DBB               	goto	l2007
  3934  0D9A                     u1950:	
  3935  0D9A                     l2005:	
  3936  0D9A  0020               	movlb	0	; select bank0
  3937  0D9B  09A0               	comf	___aodiv@divisor,f
  3938  0D9C  09A1               	comf	___aodiv@divisor+1,f
  3939  0D9D  09A2               	comf	___aodiv@divisor+2,f
  3940  0D9E  09A3               	comf	___aodiv@divisor+3,f
  3941  0D9F  09A4               	comf	___aodiv@divisor+4,f
  3942  0DA0  09A5               	comf	___aodiv@divisor+5,f
  3943  0DA1  09A6               	comf	___aodiv@divisor+6,f
  3944  0DA2  09A7               	comf	___aodiv@divisor+7,f
  3945  0DA3  0AA0               	incf	___aodiv@divisor,f
  3946  0DA4  1D03               	skipz
  3947  0DA5  2DB9               	goto	u196lld
  3948  0DA6  0AA1               	incf	___aodiv@divisor+1,f
  3949  0DA7  1D03               	skipz
  3950  0DA8  2DB9               	goto	u196lld
  3951  0DA9  0AA2               	incf	___aodiv@divisor+2,f
  3952  0DAA  1D03               	skipz
  3953  0DAB  2DB9               	goto	u196lld
  3954  0DAC  0AA3               	incf	___aodiv@divisor+3,f
  3955  0DAD  1D03               	skipz
  3956  0DAE  2DB9               	goto	u196lld
  3957  0DAF  0AA4               	incf	___aodiv@divisor+4,f
  3958  0DB0  1D03               	skipz
  3959  0DB1  2DB9               	goto	u196lld
  3960  0DB2  0AA5               	incf	___aodiv@divisor+5,f
  3961  0DB3  1D03               	skipz
  3962  0DB4  2DB9               	goto	u196lld
  3963  0DB5  0AA6               	incf	___aodiv@divisor+6,f
  3964  0DB6  1D03               	skipz
  3965  0DB7  2DB9               	goto	u196lld
  3966  0DB8  0AA7               	incf	___aodiv@divisor+7,f
  3967  0DB9                     u196lld:	
  3968  0DB9  01F2               	clrf	___aodiv@sign
  3969  0DBA  0AF2               	incf	___aodiv@sign,f
  3970  0DBB                     l2007:	
  3971  0DBB  3028               	movlw	low ___aodiv@dividend
  3972  0DBC  0086               	movwf	6
  3973  0DBD  3000               	movlw	high ___aodiv@dividend
  3974  0DBE  0087               	movwf	7
  3975  0DBF  3F47               	moviw [7]fsr1
  3976  0DC0  00F0               	movwf	??___aodiv
  3977  0DC1  1FF0               	btfss	??___aodiv,7
  3978  0DC2  2DC4               	goto	u1971
  3979  0DC3  2DC5               	goto	u1970
  3980  0DC4                     u1971:	
  3981  0DC4  2DE8               	goto	l2013
  3982  0DC5                     u1970:	
  3983  0DC5                     l2009:	
  3984  0DC5  0020               	movlb	0	; select bank0
  3985  0DC6  09A8               	comf	___aodiv@dividend,f
  3986  0DC7  09A9               	comf	___aodiv@dividend+1,f
  3987  0DC8  09AA               	comf	___aodiv@dividend+2,f
  3988  0DC9  09AB               	comf	___aodiv@dividend+3,f
  3989  0DCA  09AC               	comf	___aodiv@dividend+4,f
  3990  0DCB  09AD               	comf	___aodiv@dividend+5,f
  3991  0DCC  09AE               	comf	___aodiv@dividend+6,f
  3992  0DCD  09AF               	comf	___aodiv@dividend+7,f
  3993  0DCE  0AA8               	incf	___aodiv@dividend,f
  3994  0DCF  1D03               	skipz
  3995  0DD0  2DE4               	goto	u198lld
  3996  0DD1  0AA9               	incf	___aodiv@dividend+1,f
  3997  0DD2  1D03               	skipz
  3998  0DD3  2DE4               	goto	u198lld
  3999  0DD4  0AAA               	incf	___aodiv@dividend+2,f
  4000  0DD5  1D03               	skipz
  4001  0DD6  2DE4               	goto	u198lld
  4002  0DD7  0AAB               	incf	___aodiv@dividend+3,f
  4003  0DD8  1D03               	skipz
  4004  0DD9  2DE4               	goto	u198lld
  4005  0DDA  0AAC               	incf	___aodiv@dividend+4,f
  4006  0DDB  1D03               	skipz
  4007  0DDC  2DE4               	goto	u198lld
  4008  0DDD  0AAD               	incf	___aodiv@dividend+5,f
  4009  0DDE  1D03               	skipz
  4010  0DDF  2DE4               	goto	u198lld
  4011  0DE0  0AAE               	incf	___aodiv@dividend+6,f
  4012  0DE1  1D03               	skipz
  4013  0DE2  2DE4               	goto	u198lld
  4014  0DE3  0AAF               	incf	___aodiv@dividend+7,f
  4015  0DE4                     u198lld:	
  4016  0DE4                     l2011:	
  4017  0DE4  3001               	movlw	1
  4018  0DE5  00F0               	movwf	??___aodiv
  4019  0DE6  0870               	movf	??___aodiv,w
  4020  0DE7  06F2               	xorwf	___aodiv@sign,f
  4021  0DE8                     l2013:	
  4022  0DE8  3073               	movlw	low ___aodiv@quotient
  4023  0DE9  0086               	movwf	6
  4024  0DEA  3000               	movlw	high ___aodiv@quotient
  4025  0DEB  0087               	movwf	7
  4026  0DEC  3008               	movlw	8
  4027  0DED  00F0               	movwf	??___aodiv
  4028  0DEE  3000               	movlw	0
  4029  0DEF                     u1990:	
  4030  0DEF  001E               	movwi fsr1++
  4031  0DF0  0BF0               	decfsz	??___aodiv,f
  4032  0DF1  2DEF               	goto	u1990
  4033  0DF2                     l2015:	
  4034  0DF2  0020               	movlb	0	; select bank0
  4035  0DF3  0820               	movf	___aodiv@divisor,w
  4036  0DF4  0421               	iorwf	___aodiv@divisor+1,w
  4037  0DF5  0422               	iorwf	___aodiv@divisor+2,w
  4038  0DF6  0423               	iorwf	___aodiv@divisor+3,w
  4039  0DF7  0424               	iorwf	___aodiv@divisor+4,w
  4040  0DF8  0425               	iorwf	___aodiv@divisor+5,w
  4041  0DF9  0426               	iorwf	___aodiv@divisor+6,w
  4042  0DFA  0427               	iorwf	___aodiv@divisor+7,w
  4043  0DFB  1903               	skipnz
  4044  0DFC  2DFE               	goto	u2001
  4045  0DFD  2DFF               	goto	u2000
  4046  0DFE                     u2001:	
  4047  0DFE  2E5B               	goto	l2035
  4048  0DFF                     u2000:	
  4049  0DFF                     l2017:	
  4050  0DFF  01F1               	clrf	___aodiv@counter
  4051  0E00  0AF1               	incf	___aodiv@counter,f
  4052  0E01  2E0E               	goto	l2023
  4053  0E02                     l2019:	
  4054  0E02  35A0               	lslf	___aodiv@divisor,f
  4055  0E03  0DA1               	rlf	___aodiv@divisor+1,f
  4056  0E04  0DA2               	rlf	___aodiv@divisor+2,f
  4057  0E05  0DA3               	rlf	___aodiv@divisor+3,f
  4058  0E06  0DA4               	rlf	___aodiv@divisor+4,f
  4059  0E07  0DA5               	rlf	___aodiv@divisor+5,f
  4060  0E08  0DA6               	rlf	___aodiv@divisor+6,f
  4061  0E09  0DA7               	rlf	___aodiv@divisor+7,f
  4062  0E0A                     l2021:	
  4063  0E0A  3001               	movlw	1
  4064  0E0B  00F0               	movwf	??___aodiv
  4065  0E0C  0870               	movf	??___aodiv,w
  4066  0E0D  07F1               	addwf	___aodiv@counter,f
  4067  0E0E                     l2023:	
  4068  0E0E  1FA7               	btfss	___aodiv@divisor+7,7
  4069  0E0F  2E11               	goto	u2011
  4070  0E10  2E12               	goto	u2010
  4071  0E11                     u2011:	
  4072  0E11  2E02               	goto	l2019
  4073  0E12                     u2010:	
  4074  0E12                     l2025:	
  4075  0E12  35F3               	lslf	___aodiv@quotient,f
  4076  0E13  0DF4               	rlf	___aodiv@quotient+1,f
  4077  0E14  0DF5               	rlf	___aodiv@quotient+2,f
  4078  0E15  0DF6               	rlf	___aodiv@quotient+3,f
  4079  0E16  0DF7               	rlf	___aodiv@quotient+4,f
  4080  0E17  0DF8               	rlf	___aodiv@quotient+5,f
  4081  0E18  0DF9               	rlf	___aodiv@quotient+6,f
  4082  0E19  0DFA               	rlf	___aodiv@quotient+7,f
  4083  0E1A                     l2027:	
  4084  0E1A  0827               	movf	___aodiv@divisor+7,w
  4085  0E1B  022F               	subwf	___aodiv@dividend+7,w
  4086  0E1C  1D03               	skipz
  4087  0E1D  2E38               	goto	u2025
  4088  0E1E  0826               	movf	___aodiv@divisor+6,w
  4089  0E1F  022E               	subwf	___aodiv@dividend+6,w
  4090  0E20  1D03               	skipz
  4091  0E21  2E38               	goto	u2025
  4092  0E22  0825               	movf	___aodiv@divisor+5,w
  4093  0E23  022D               	subwf	___aodiv@dividend+5,w
  4094  0E24  1D03               	skipz
  4095  0E25  2E38               	goto	u2025
  4096  0E26  0824               	movf	___aodiv@divisor+4,w
  4097  0E27  022C               	subwf	___aodiv@dividend+4,w
  4098  0E28  1D03               	skipz
  4099  0E29  2E38               	goto	u2025
  4100  0E2A  0823               	movf	___aodiv@divisor+3,w
  4101  0E2B  022B               	subwf	___aodiv@dividend+3,w
  4102  0E2C  1D03               	skipz
  4103  0E2D  2E38               	goto	u2025
  4104  0E2E  0822               	movf	___aodiv@divisor+2,w
  4105  0E2F  022A               	subwf	___aodiv@dividend+2,w
  4106  0E30  1D03               	skipz
  4107  0E31  2E38               	goto	u2025
  4108  0E32  0821               	movf	___aodiv@divisor+1,w
  4109  0E33  0229               	subwf	___aodiv@dividend+1,w
  4110  0E34  1D03               	skipz
  4111  0E35  2E38               	goto	u2025
  4112  0E36  0820               	movf	___aodiv@divisor,w
  4113  0E37  0228               	subwf	___aodiv@dividend,w
  4114  0E38                     u2025:	
  4115  0E38  1C03               	skipc
  4116  0E39  2E3B               	goto	u2021
  4117  0E3A  2E3C               	goto	u2020
  4118  0E3B                     u2021:	
  4119  0E3B  2E4D               	goto	l2033
  4120  0E3C                     u2020:	
  4121  0E3C                     l2029:	
  4122  0E3C  0820               	movf	___aodiv@divisor,w
  4123  0E3D  02A8               	subwf	___aodiv@dividend,f
  4124  0E3E  0821               	movf	___aodiv@divisor+1,w
  4125  0E3F  3BA9               	subwfb	___aodiv@dividend+1,f
  4126  0E40  0822               	movf	___aodiv@divisor+2,w
  4127  0E41  3BAA               	subwfb	___aodiv@dividend+2,f
  4128  0E42  0823               	movf	___aodiv@divisor+3,w
  4129  0E43  3BAB               	subwfb	___aodiv@dividend+3,f
  4130  0E44  0824               	movf	___aodiv@divisor+4,w
  4131  0E45  3BAC               	subwfb	___aodiv@dividend+4,f
  4132  0E46  0825               	movf	___aodiv@divisor+5,w
  4133  0E47  3BAD               	subwfb	___aodiv@dividend+5,f
  4134  0E48  0826               	movf	___aodiv@divisor+6,w
  4135  0E49  3BAE               	subwfb	___aodiv@dividend+6,f
  4136  0E4A  0827               	movf	___aodiv@divisor+7,w
  4137  0E4B  3BAF               	subwfb	___aodiv@dividend+7,f
  4138  0E4C                     l2031:	
  4139  0E4C  1473               	bsf	___aodiv@quotient,0
  4140  0E4D                     l2033:	
  4141  0E4D  36A7               	lsrf	___aodiv@divisor+7,f
  4142  0E4E  0CA6               	rrf	___aodiv@divisor+6,f
  4143  0E4F  0CA5               	rrf	___aodiv@divisor+5,f
  4144  0E50  0CA4               	rrf	___aodiv@divisor+4,f
  4145  0E51  0CA3               	rrf	___aodiv@divisor+3,f
  4146  0E52  0CA2               	rrf	___aodiv@divisor+2,f
  4147  0E53  0CA1               	rrf	___aodiv@divisor+1,f
  4148  0E54  0CA0               	rrf	___aodiv@divisor,f
  4149  0E55  3001               	movlw	1
  4150  0E56  02F1               	subwf	___aodiv@counter,f
  4151  0E57  1D03               	btfss	3,2
  4152  0E58  2E5A               	goto	u2031
  4153  0E59  2E5B               	goto	u2030
  4154  0E5A                     u2031:	
  4155  0E5A  2E12               	goto	l2025
  4156  0E5B                     u2030:	
  4157  0E5B                     l2035:	
  4158  0E5B  0872               	movf	___aodiv@sign,w
  4159  0E5C  1903               	btfsc	3,2
  4160  0E5D  2E5F               	goto	u2041
  4161  0E5E  2E60               	goto	u2040
  4162  0E5F                     u2041:	
  4163  0E5F  2E7E               	goto	l431
  4164  0E60                     u2040:	
  4165  0E60                     l2037:	
  4166  0E60  09F3               	comf	___aodiv@quotient,f
  4167  0E61  09F4               	comf	___aodiv@quotient+1,f
  4168  0E62  09F5               	comf	___aodiv@quotient+2,f
  4169  0E63  09F6               	comf	___aodiv@quotient+3,f
  4170  0E64  09F7               	comf	___aodiv@quotient+4,f
  4171  0E65  09F8               	comf	___aodiv@quotient+5,f
  4172  0E66  09F9               	comf	___aodiv@quotient+6,f
  4173  0E67  09FA               	comf	___aodiv@quotient+7,f
  4174  0E68  0AF3               	incf	___aodiv@quotient,f
  4175  0E69  1D03               	skipz
  4176  0E6A  2E7E               	goto	u205lld
  4177  0E6B  0AF4               	incf	___aodiv@quotient+1,f
  4178  0E6C  1D03               	skipz
  4179  0E6D  2E7E               	goto	u205lld
  4180  0E6E  0AF5               	incf	___aodiv@quotient+2,f
  4181  0E6F  1D03               	skipz
  4182  0E70  2E7E               	goto	u205lld
  4183  0E71  0AF6               	incf	___aodiv@quotient+3,f
  4184  0E72  1D03               	skipz
  4185  0E73  2E7E               	goto	u205lld
  4186  0E74  0AF7               	incf	___aodiv@quotient+4,f
  4187  0E75  1D03               	skipz
  4188  0E76  2E7E               	goto	u205lld
  4189  0E77  0AF8               	incf	___aodiv@quotient+5,f
  4190  0E78  1D03               	skipz
  4191  0E79  2E7E               	goto	u205lld
  4192  0E7A  0AF9               	incf	___aodiv@quotient+6,f
  4193  0E7B  1D03               	skipz
  4194  0E7C  2E7E               	goto	u205lld
  4195  0E7D  0AFA               	incf	___aodiv@quotient+7,f
  4196  0E7E                     u205lld:	
  4197  0E7E                     l431:	
  4198  0E7E  0873               	movf	___aodiv@quotient,w
  4199  0E7F  0020               	movlb	0	; select bank0
  4200  0E80  00A0               	movwf	?___aodiv
  4201  0E81  0874               	movf	___aodiv@quotient+1,w
  4202  0E82  00A1               	movwf	?___aodiv+1
  4203  0E83  0875               	movf	___aodiv@quotient+2,w
  4204  0E84  00A2               	movwf	?___aodiv+2
  4205  0E85  0876               	movf	___aodiv@quotient+3,w
  4206  0E86  00A3               	movwf	?___aodiv+3
  4207  0E87  0877               	movf	___aodiv@quotient+4,w
  4208  0E88  00A4               	movwf	?___aodiv+4
  4209  0E89  0878               	movf	___aodiv@quotient+5,w
  4210  0E8A  00A5               	movwf	?___aodiv+5
  4211  0E8B  0879               	movf	___aodiv@quotient+6,w
  4212  0E8C  00A6               	movwf	?___aodiv+6
  4213  0E8D  087A               	movf	___aodiv@quotient+7,w
  4214  0E8E  00A7               	movwf	?___aodiv+7
  4215  0E8F                     l432:	
  4216  0E8F  0008               	return
  4217  0E90                     __end_of___aodiv:	
  4218                           
  4219                           	psect	text13
  4220  0BF6                     __ptext13:	
  4221 ;; *************** function _atoi *****************
  4222 ;; Defined at:
  4223 ;;		line 4 in file "C:\Program Files (x86)\Microchip\xc8\v2.10\pic\sources\c99\common\atoi.c"
  4224 ;; Parameters:    Size  Location     Type
  4225 ;;  s               2    6[COMMON] PTR const unsigned char 
  4226 ;;		 -> STR_2(16), STR_1(16), 
  4227 ;; Auto vars:     Size  Location     Type
  4228 ;;  n               2    7[BANK0 ] int 
  4229 ;;  neg             2    0[BANK0 ] int 
  4230 ;; Return value:  Size  Location     Type
  4231 ;;                  2    6[COMMON] int 
  4232 ;; Registers used:
  4233 ;;		wreg, fsr0l, fsr0h, status,2, status,0, pclath, cstack
  4234 ;; Tracked objects:
  4235 ;;		On entry : 0/0
  4236 ;;		On exit  : 0/0
  4237 ;;		Unchanged: 0/0
  4238 ;; Data sizes:     COMMON   BANK0   BANK1   BANK2   BANK3   BANK4   BANK5   BANK6   BANK7   BANK8   BANK9  BANK10  BANK1
      +1  BANK12
  4239 ;;      Params:         2       0       0       0       0       0       0       0       0       0       0       0       
      +0       0
  4240 ;;      Locals:         0       9       0       0       0       0       0       0       0       0       0       0       
      +0       0
  4241 ;;      Temps:          4       0       0       0       0       0       0       0       0       0       0       0       
      +0       0
  4242 ;;      Totals:         6       9       0       0       0       0       0       0       0       0       0       0       
      +0       0
  4243 ;;Total ram usage:       15 bytes
  4244 ;; Hardware stack levels used:    1
  4245 ;; Hardware stack levels required when called:    1
  4246 ;; This function calls:
  4247 ;;		___wmul
  4248 ;;		_isdigit
  4249 ;;		_isspace
  4250 ;; This function is called by:
  4251 ;;		_vfpfcnvrt
  4252 ;; This function uses a non-reentrant model
  4253 ;;
  4254                           
  4255                           
  4256                           ;psect for function _atoi
  4257  0BF6                     _atoi:	
  4258  0BF6                     l2139:	
  4259                           ;incstack = 0
  4260                           ; Regs used in _atoi: [wreg-fsr0h+status,2+status,0+pclath+cstack]
  4261                           
  4262  0BF6  0020               	movlb	0	; select bank0
  4263  0BF7  01A7               	clrf	atoi@n
  4264  0BF8  01A8               	clrf	atoi@n+1
  4265  0BF9  01A0               	clrf	atoi@neg
  4266  0BFA  01A1               	clrf	atoi@neg+1
  4267  0BFB  2C00               	goto	l2143
  4268  0BFC                     l2141:	
  4269  0BFC  3001               	movlw	1
  4270  0BFD  07F6               	addwf	atoi@s,f
  4271  0BFE  3000               	movlw	0
  4272  0BFF  3DF7               	addwfc	atoi@s+1,f
  4273  0C00                     l2143:	
  4274  0C00  01A6               	clrf	_atoi$820
  4275  0C01  0AA6               	incf	_atoi$820,f
  4276  0C02                     l2145:	
  4277  0C02  0876               	movf	atoi@s,w
  4278  0C03  0084               	movwf	4
  4279  0C04  0877               	movf	atoi@s+1,w
  4280  0C05  0085               	movwf	5
  4281  0C06  0012               	moviw fsr0++
  4282  0C07  3A20               	xorlw	32
  4283  0C08  1903               	btfsc	3,2
  4284  0C09  2C0B               	goto	u2341
  4285  0C0A  2C0C               	goto	u2340
  4286  0C0B                     u2341:	
  4287  0C0B  2C21               	goto	l2151
  4288  0C0C                     u2340:	
  4289  0C0C                     l2147:	
  4290  0C0C  0876               	movf	atoi@s,w
  4291  0C0D  0084               	movwf	4
  4292  0C0E  0877               	movf	atoi@s+1,w
  4293  0C0F  0085               	movwf	5
  4294  0C10  0800               	movf	0,w	;code access
  4295  0C11  3EF7               	addlw	247
  4296  0C12  00F8               	movwf	??_atoi
  4297  0C13  30FF               	movlw	255
  4298  0C14  1803               	skipnc
  4299  0C15  3000               	movlw	0
  4300  0C16  00F9               	movwf	??_atoi+1
  4301  0C17  3000               	movlw	0
  4302  0C18  0279               	subwf	??_atoi+1,w
  4303  0C19  3005               	movlw	5
  4304  0C1A  1903               	skipnz
  4305  0C1B  0278               	subwf	??_atoi,w
  4306  0C1C  1C03               	skipc
  4307  0C1D  2C1F               	goto	u2351
  4308  0C1E  2C20               	goto	u2350
  4309  0C1F                     u2351:	
  4310  0C1F  2C21               	goto	l2151
  4311  0C20                     u2350:	
  4312  0C20                     l2149:	
  4313  0C20  01A6               	clrf	_atoi$820
  4314  0C21                     l2151:	
  4315  0C21  0826               	movf	_atoi$820,w
  4316  0C22  00F8               	movwf	??_atoi
  4317  0C23  01F9               	clrf	??_atoi+1
  4318  0C24  0878               	movf	??_atoi,w
  4319  0C25  00A2               	movwf	_atoi$819
  4320  0C26  0879               	movf	??_atoi+1,w
  4321  0C27  00A3               	movwf	_atoi$819+1
  4322  0C28                     l2155:	
  4323  0C28  0822               	movf	_atoi$819,w
  4324  0C29  0423               	iorwf	_atoi$819+1,w
  4325  0C2A  1D03               	btfss	3,2
  4326  0C2B  2C2D               	goto	u2361
  4327  0C2C  2C2E               	goto	u2360
  4328  0C2D                     u2361:	
  4329  0C2D  2BFC               	goto	l2141
  4330  0C2E                     u2360:	
  4331  0C2E  2C38               	goto	l2159
  4332  0C2F                     l2157:	
  4333  0C2F  3001               	movlw	1
  4334  0C30  00A0               	movwf	atoi@neg
  4335  0C31  3000               	movlw	0
  4336  0C32  00A1               	movwf	atoi@neg+1
  4337  0C33                     l806:	
  4338  0C33  3001               	movlw	1
  4339  0C34  07F6               	addwf	atoi@s,f
  4340  0C35  3000               	movlw	0
  4341  0C36  3DF7               	addwfc	atoi@s+1,f
  4342  0C37  2C6C               	goto	l2165
  4343  0C38                     l2159:	
  4344  0C38  0876               	movf	atoi@s,w
  4345  0C39  0084               	movwf	4
  4346  0C3A  0877               	movf	atoi@s+1,w
  4347  0C3B  0085               	movwf	5
  4348  0C3C  0800               	movf	0,w	;code access
  4349  0C3D  00F8               	movwf	??_atoi
  4350  0C3E  01F9               	clrf	??_atoi+1
  4351                           
  4352                           ; Switch on 2 bytes has been partitioned into a top level switch of size 1, and 1 sub-sw
      +                          itches
  4353                           ; Switch size 1, requested type "simple"
  4354                           ; Number of cases is 1, Range of values is 0 to 0
  4355                           ; switch strategies available:
  4356                           ; Name         Instructions Cycles
  4357                           ; simple_byte            4     3 (average)
  4358                           ; direct_byte            8     6 (fixed)
  4359                           ; jumptable            260     6 (fixed)
  4360                           ;	Chosen strategy is simple_byte
  4361  0C3F  0879               	movf	??_atoi+1,w
  4362  0C40  3A00               	xorlw	0	; case 0
  4363  0C41  1903               	skipnz
  4364  0C42  2C44               	goto	l2959
  4365  0C43  2C6C               	goto	l2165
  4366  0C44                     l2959:	
  4367                           
  4368                           ; Switch size 1, requested type "simple"
  4369                           ; Number of cases is 2, Range of values is 43 to 45
  4370                           ; switch strategies available:
  4371                           ; Name         Instructions Cycles
  4372                           ; simple_byte            7     4 (average)
  4373                           ; direct_byte           15     9 (fixed)
  4374                           ; jumptable            263     9 (fixed)
  4375                           ;	Chosen strategy is simple_byte
  4376  0C44  0878               	movf	??_atoi,w
  4377  0C45  3A2B               	xorlw	43	; case 43
  4378  0C46  1903               	skipnz
  4379  0C47  2C33               	goto	l806
  4380  0C48  3A06               	xorlw	6	; case 45
  4381  0C49  1903               	skipnz
  4382  0C4A  2C2F               	goto	l2157
  4383  0C4B  2C6C               	goto	l2165
  4384  0C4C                     l2161:	
  4385  0C4C  0876               	movf	atoi@s,w
  4386  0C4D  0084               	movwf	4
  4387  0C4E  0877               	movf	atoi@s+1,w
  4388  0C4F  0085               	movwf	5
  4389  0C50  0800               	movf	0,w	;code access
  4390  0C51  00F8               	movwf	??_atoi
  4391  0C52  0828               	movf	atoi@n+1,w
  4392  0C53  00F1               	movwf	___wmul@multiplier+1
  4393  0C54  0827               	movf	atoi@n,w
  4394  0C55  00F0               	movwf	___wmul@multiplier
  4395  0C56  300A               	movlw	10
  4396  0C57  00F2               	movwf	___wmul@multiplicand
  4397  0C58  3000               	movlw	0
  4398  0C59  00F3               	movwf	___wmul@multiplicand+1
  4399  0C5A  3197  27C0  318B   	fcall	___wmul
  4400  0C5D  0871               	movf	?___wmul+1,w
  4401  0C5E  00FA               	movwf	??_atoi+2
  4402  0C5F  0878               	movf	??_atoi,w
  4403  0C60  0270               	subwf	?___wmul,w
  4404  0C61  00F9               	movwf	??_atoi+1
  4405  0C62  1C03               	skipc
  4406  0C63  03FA               	decf	??_atoi+2,f
  4407  0C64  0879               	movf	??_atoi+1,w
  4408  0C65  3E30               	addlw	48
  4409  0C66  0020               	movlb	0	; select bank0
  4410  0C67  00A7               	movwf	atoi@n
  4411  0C68  3000               	movlw	0
  4412  0C69  3D7A               	addwfc	??_atoi+2,w
  4413  0C6A  00A8               	movwf	atoi@n+1
  4414  0C6B  2C33               	goto	l806
  4415  0C6C                     l2165:	
  4416  0C6C  0876               	movf	atoi@s,w
  4417  0C6D  0084               	movwf	4
  4418  0C6E  0877               	movf	atoi@s+1,w
  4419  0C6F  0085               	movwf	5
  4420  0C70  0800               	movf	0,w	;code access
  4421  0C71  3ED0               	addlw	208
  4422  0C72  00F8               	movwf	??_atoi
  4423  0C73  30FF               	movlw	255
  4424  0C74  1803               	skipnc
  4425  0C75  3000               	movlw	0
  4426  0C76  00F9               	movwf	??_atoi+1
  4427  0C77  3000               	movlw	0
  4428  0C78  0279               	subwf	??_atoi+1,w
  4429  0C79  300A               	movlw	10
  4430  0C7A  1903               	skipnz
  4431  0C7B  0278               	subwf	??_atoi,w
  4432  0C7C  1C03               	skipc
  4433  0C7D  2C7F               	goto	u2371
  4434  0C7E  2C81               	goto	u2370
  4435  0C7F                     u2371:	
  4436  0C7F  3001               	movlw	1
  4437  0C80  2C82               	goto	u2380
  4438  0C81                     u2370:	
  4439  0C81  3000               	movlw	0
  4440  0C82                     u2380:	
  4441  0C82  00FA               	movwf	??_atoi+2
  4442  0C83  01FB               	clrf	??_atoi+3
  4443  0C84  087A               	movf	??_atoi+2,w
  4444  0C85  00A4               	movwf	_atoi$821
  4445  0C86  087B               	movf	??_atoi+3,w
  4446  0C87  00A5               	movwf	_atoi$821+1
  4447  0C88                     l2169:	
  4448  0C88  0824               	movf	_atoi$821,w
  4449  0C89  0425               	iorwf	_atoi$821+1,w
  4450  0C8A  1D03               	btfss	3,2
  4451  0C8B  2C8D               	goto	u2391
  4452  0C8C  2C8E               	goto	u2390
  4453  0C8D                     u2391:	
  4454  0C8D  2C4C               	goto	l2161
  4455  0C8E                     u2390:	
  4456  0C8E                     l2171:	
  4457  0C8E  0820               	movf	atoi@neg,w
  4458  0C8F  0421               	iorwf	atoi@neg+1,w
  4459  0C90  1D03               	btfss	3,2
  4460  0C91  2C93               	goto	u2401
  4461  0C92  2C94               	goto	u2400
  4462  0C93                     u2401:	
  4463  0C93  2CA0               	goto	l2175
  4464  0C94                     u2400:	
  4465  0C94                     l2173:	
  4466  0C94  0927               	comf	atoi@n,w
  4467  0C95  00F8               	movwf	??_atoi
  4468  0C96  0928               	comf	atoi@n+1,w
  4469  0C97  00F9               	movwf	??_atoi+1
  4470  0C98  0AF8               	incf	??_atoi,f
  4471  0C99  1903               	skipnz
  4472  0C9A  0AF9               	incf	??_atoi+1,f
  4473  0C9B  0878               	movf	??_atoi,w
  4474  0C9C  00F6               	movwf	?_atoi
  4475  0C9D  0879               	movf	??_atoi+1,w
  4476  0C9E  00F7               	movwf	?_atoi+1
  4477  0C9F  2CA4               	goto	l819
  4478  0CA0                     l2175:	
  4479  0CA0  0828               	movf	atoi@n+1,w
  4480  0CA1  00F7               	movwf	?_atoi+1
  4481  0CA2  0827               	movf	atoi@n,w
  4482  0CA3  00F6               	movwf	?_atoi
  4483  0CA4                     l819:	
  4484  0CA4  0008               	return
  4485  0CA5                     __end_of_atoi:	
  4486                           
  4487                           	psect	text14
  4488  17DF                     __ptext14:	
  4489 ;; *************** function _isspace *****************
  4490 ;; Defined at:
  4491 ;;		line 5 in file "C:\Program Files (x86)\Microchip\xc8\v2.10\pic\sources\c99\common\isspace.c"
  4492 ;; Parameters:    Size  Location     Type
  4493 ;;  c               2    0[COMMON] int 
  4494 ;; Auto vars:     Size  Location     Type
  4495 ;;		None
  4496 ;; Return value:  Size  Location     Type
  4497 ;;                  2    0[COMMON] int 
  4498 ;; Registers used:
  4499 ;;		wreg, status,2, status,0
  4500 ;; Tracked objects:
  4501 ;;		On entry : 0/0
  4502 ;;		On exit  : 0/0
  4503 ;;		Unchanged: 0/0
  4504 ;; Data sizes:     COMMON   BANK0   BANK1   BANK2   BANK3   BANK4   BANK5   BANK6   BANK7   BANK8   BANK9  BANK10  BANK1
      +1  BANK12
  4505 ;;      Params:         2       0       0       0       0       0       0       0       0       0       0       0       
      +0       0
  4506 ;;      Locals:         1       0       0       0       0       0       0       0       0       0       0       0       
      +0       0
  4507 ;;      Temps:          2       0       0       0       0       0       0       0       0       0       0       0       
      +0       0
  4508 ;;      Totals:         5       0       0       0       0       0       0       0       0       0       0       0       
      +0       0
  4509 ;;Total ram usage:        5 bytes
  4510 ;; Hardware stack levels used:    1
  4511 ;; This function calls:
  4512 ;;		Nothing
  4513 ;; This function is called by:
  4514 ;;		_atoi
  4515 ;; This function uses a non-reentrant model
  4516 ;;
  4517                           
  4518                           
  4519                           ;psect for function _isspace
  4520  17DF                     _isspace:	
  4521  17DF                     l2069:	
  4522                           ;incstack = 0
  4523                           ; Regs used in _isspace: [wreg+status,2+status,0]
  4524                           
  4525  17DF  01F4               	clrf	_isspace$837
  4526  17E0  0AF4               	incf	_isspace$837,f
  4527  17E1                     l2071:	
  4528  17E1  3020               	movlw	32
  4529  17E2  0670               	xorwf	isspace@c,w
  4530  17E3  0471               	iorwf	isspace@c+1,w
  4531  17E4  1903               	btfsc	3,2
  4532  17E5  2FE7               	goto	u2161
  4533  17E6  2FE8               	goto	u2160
  4534  17E7                     u2161:	
  4535  17E7  2FF8               	goto	l2077
  4536  17E8                     u2160:	
  4537  17E8                     l2073:	
  4538  17E8  0870               	movf	isspace@c,w
  4539  17E9  3EF7               	addlw	247
  4540  17EA  00F2               	movwf	??_isspace
  4541  17EB  30FF               	movlw	255
  4542  17EC  3D71               	addwfc	isspace@c+1,w
  4543  17ED  00F3               	movwf	??_isspace+1
  4544  17EE  3000               	movlw	0
  4545  17EF  0273               	subwf	??_isspace+1,w
  4546  17F0  3005               	movlw	5
  4547  17F1  1903               	skipnz
  4548  17F2  0272               	subwf	??_isspace,w
  4549  17F3  1C03               	skipc
  4550  17F4  2FF6               	goto	u2171
  4551  17F5  2FF7               	goto	u2170
  4552  17F6                     u2171:	
  4553  17F6  2FF8               	goto	l2077
  4554  17F7                     u2170:	
  4555  17F7                     l2075:	
  4556  17F7  01F4               	clrf	_isspace$837
  4557  17F8                     l2077:	
  4558  17F8  0874               	movf	_isspace$837,w
  4559  17F9  00F2               	movwf	??_isspace
  4560  17FA  01F3               	clrf	??_isspace+1
  4561  17FB  0872               	movf	??_isspace,w
  4562  17FC  00F0               	movwf	?_isspace
  4563  17FD  0873               	movf	??_isspace+1,w
  4564  17FE  00F1               	movwf	?_isspace+1
  4565  17FF                     l830:	
  4566  17FF  0008               	return
  4567  1800                     __end_of_isspace:	
  4568                           
  4569                           	psect	text15
  4570  1774                     __ptext15:	
  4571 ;; *************** function _isdigit *****************
  4572 ;; Defined at:
  4573 ;;		line 5 in file "C:\Program Files (x86)\Microchip\xc8\v2.10\pic\sources\c99\common\isdigit.c"
  4574 ;; Parameters:    Size  Location     Type
  4575 ;;  c               2    0[COMMON] int 
  4576 ;; Auto vars:     Size  Location     Type
  4577 ;;		None
  4578 ;; Return value:  Size  Location     Type
  4579 ;;                  2    0[COMMON] int 
  4580 ;; Registers used:
  4581 ;;		wreg, status,2, status,0
  4582 ;; Tracked objects:
  4583 ;;		On entry : 0/0
  4584 ;;		On exit  : 0/0
  4585 ;;		Unchanged: 0/0
  4586 ;; Data sizes:     COMMON   BANK0   BANK1   BANK2   BANK3   BANK4   BANK5   BANK6   BANK7   BANK8   BANK9  BANK10  BANK1
      +1  BANK12
  4587 ;;      Params:         2       0       0       0       0       0       0       0       0       0       0       0       
      +0       0
  4588 ;;      Locals:         0       0       0       0       0       0       0       0       0       0       0       0       
      +0       0
  4589 ;;      Temps:          4       0       0       0       0       0       0       0       0       0       0       0       
      +0       0
  4590 ;;      Totals:         6       0       0       0       0       0       0       0       0       0       0       0       
      +0       0
  4591 ;;Total ram usage:        6 bytes
  4592 ;; Hardware stack levels used:    1
  4593 ;; This function calls:
  4594 ;;		Nothing
  4595 ;; This function is called by:
  4596 ;;		_vfpfcnvrt
  4597 ;;		_atoi
  4598 ;; This function uses a non-reentrant model
  4599 ;;
  4600                           
  4601                           
  4602                           ;psect for function _isdigit
  4603  1774                     _isdigit:	
  4604  1774                     l1983:	
  4605                           ;incstack = 0
  4606                           ; Regs used in _isdigit: [wreg+status,2+status,0]
  4607                           
  4608  1774  0870               	movf	isdigit@c,w
  4609  1775  3ED0               	addlw	208
  4610  1776  00F2               	movwf	??_isdigit
  4611  1777  30FF               	movlw	255
  4612  1778  3D71               	addwfc	isdigit@c+1,w
  4613  1779  00F3               	movwf	??_isdigit+1
  4614  177A  3000               	movlw	0
  4615  177B  0273               	subwf	??_isdigit+1,w
  4616  177C  300A               	movlw	10
  4617  177D  1903               	skipnz
  4618  177E  0272               	subwf	??_isdigit,w
  4619  177F  1C03               	skipc
  4620  1780  2F82               	goto	u1891
  4621  1781  2F84               	goto	u1890
  4622  1782                     u1891:	
  4623  1782  3001               	movlw	1
  4624  1783  2F85               	goto	u1900
  4625  1784                     u1890:	
  4626  1784  3000               	movlw	0
  4627  1785                     u1900:	
  4628  1785  00F4               	movwf	??_isdigit+2
  4629  1786  01F5               	clrf	??_isdigit+3
  4630  1787  0874               	movf	??_isdigit+2,w
  4631  1788  00F0               	movwf	?_isdigit
  4632  1789  0875               	movf	??_isdigit+3,w
  4633  178A  00F1               	movwf	?_isdigit+1
  4634  178B                     l822:	
  4635  178B  0008               	return
  4636  178C                     __end_of_isdigit:	
  4637                           
  4638                           	psect	text16
  4639  17C0                     __ptext16:	
  4640 ;; *************** function ___wmul *****************
  4641 ;; Defined at:
  4642 ;;		line 15 in file "C:\Program Files (x86)\Microchip\xc8\v2.10\pic\sources\c99\common\Umul16.c"
  4643 ;; Parameters:    Size  Location     Type
  4644 ;;  multiplier      2    0[COMMON] unsigned int 
  4645 ;;  multiplicand    2    2[COMMON] unsigned int 
  4646 ;; Auto vars:     Size  Location     Type
  4647 ;;  product         2    4[COMMON] unsigned int 
  4648 ;; Return value:  Size  Location     Type
  4649 ;;                  2    0[COMMON] unsigned int 
  4650 ;; Registers used:
  4651 ;;		wreg, status,2, status,0
  4652 ;; Tracked objects:
  4653 ;;		On entry : 0/0
  4654 ;;		On exit  : 0/0
  4655 ;;		Unchanged: 0/0
  4656 ;; Data sizes:     COMMON   BANK0   BANK1   BANK2   BANK3   BANK4   BANK5   BANK6   BANK7   BANK8   BANK9  BANK10  BANK1
      +1  BANK12
  4657 ;;      Params:         4       0       0       0       0       0       0       0       0       0       0       0       
      +0       0
  4658 ;;      Locals:         2       0       0       0       0       0       0       0       0       0       0       0       
      +0       0
  4659 ;;      Temps:          0       0       0       0       0       0       0       0       0       0       0       0       
      +0       0
  4660 ;;      Totals:         6       0       0       0       0       0       0       0       0       0       0       0       
      +0       0
  4661 ;;Total ram usage:        6 bytes
  4662 ;; Hardware stack levels used:    1
  4663 ;; This function calls:
  4664 ;;		Nothing
  4665 ;; This function is called by:
  4666 ;;		_atoi
  4667 ;; This function uses a non-reentrant model
  4668 ;;
  4669                           
  4670                           
  4671                           ;psect for function ___wmul
  4672  17C0                     ___wmul:	
  4673  17C0                     l1987:	
  4674                           ;incstack = 0
  4675                           ; Regs used in ___wmul: [wreg+status,2+status,0]
  4676                           
  4677  17C0  01F4               	clrf	___wmul@product
  4678  17C1  01F5               	clrf	___wmul@product+1
  4679  17C2                     l1989:	
  4680  17C2  1C70               	btfss	___wmul@multiplier,0
  4681  17C3  2FC5               	goto	u1911
  4682  17C4  2FC6               	goto	u1910
  4683  17C5                     u1911:	
  4684  17C5  2FCA               	goto	l331
  4685  17C6                     u1910:	
  4686  17C6                     l1991:	
  4687  17C6  0872               	movf	___wmul@multiplicand,w
  4688  17C7  07F4               	addwf	___wmul@product,f
  4689  17C8  0873               	movf	___wmul@multiplicand+1,w
  4690  17C9  3DF5               	addwfc	___wmul@product+1,f
  4691  17CA                     l331:	
  4692  17CA  3001               	movlw	1
  4693  17CB                     u1925:	
  4694  17CB  35F2               	lslf	___wmul@multiplicand,f
  4695  17CC  0DF3               	rlf	___wmul@multiplicand+1,f
  4696  17CD  0B89               	decfsz	9,f
  4697  17CE  2FCB               	goto	u1925
  4698  17CF                     l1993:	
  4699  17CF  3001               	movlw	1
  4700  17D0                     u1935:	
  4701  17D0  36F1               	lsrf	___wmul@multiplier+1,f
  4702  17D1  0CF0               	rrf	___wmul@multiplier,f
  4703  17D2  0B89               	decfsz	9,f
  4704  17D3  2FD0               	goto	u1935
  4705  17D4                     l1995:	
  4706  17D4  0870               	movf	___wmul@multiplier,w
  4707  17D5  0471               	iorwf	___wmul@multiplier+1,w
  4708  17D6  1D03               	btfss	3,2
  4709  17D7  2FD9               	goto	u1941
  4710  17D8  2FDA               	goto	u1940
  4711  17D9                     u1941:	
  4712  17D9  2FC2               	goto	l1989
  4713  17DA                     u1940:	
  4714  17DA                     l1997:	
  4715  17DA  0875               	movf	___wmul@product+1,w
  4716  17DB  00F1               	movwf	?___wmul+1
  4717  17DC  0874               	movf	___wmul@product,w
  4718  17DD  00F0               	movwf	?___wmul
  4719  17DE                     l333:	
  4720  17DE  0008               	return
  4721  17DF                     __end_of___wmul:	
  4722                           
  4723                           	psect	text17
  4724  0B4A                     __ptext17:	
  4725 ;; *************** function ___xxtofl *****************
  4726 ;; Defined at:
  4727 ;;		line 10 in file "C:\Program Files (x86)\Microchip\xc8\v2.10\pic\sources\c99\common\xxtofl.c"
  4728 ;; Parameters:    Size  Location     Type
  4729 ;;  sign            1    wreg     unsigned char 
  4730 ;;  val             4    0[COMMON] long 
  4731 ;; Auto vars:     Size  Location     Type
  4732 ;;  sign            1    8[COMMON] unsigned char 
  4733 ;;  arg             4   10[COMMON] unsigned long 
  4734 ;;  exp             1    9[COMMON] unsigned char 
  4735 ;; Return value:  Size  Location     Type
  4736 ;;                  4    0[COMMON] unsigned char 
  4737 ;; Registers used:
  4738 ;;		wreg, status,2, status,0
  4739 ;; Tracked objects:
  4740 ;;		On entry : 0/0
  4741 ;;		On exit  : 0/0
  4742 ;;		Unchanged: 0/0
  4743 ;; Data sizes:     COMMON   BANK0   BANK1   BANK2   BANK3   BANK4   BANK5   BANK6   BANK7   BANK8   BANK9  BANK10  BANK1
      +1  BANK12
  4744 ;;      Params:         4       0       0       0       0       0       0       0       0       0       0       0       
      +0       0
  4745 ;;      Locals:         6       0       0       0       0       0       0       0       0       0       0       0       
      +0       0
  4746 ;;      Temps:          4       0       0       0       0       0       0       0       0       0       0       0       
      +0       0
  4747 ;;      Totals:        14       0       0       0       0       0       0       0       0       0       0       0       
      +0       0
  4748 ;;Total ram usage:       14 bytes
  4749 ;; Hardware stack levels used:    1
  4750 ;; This function calls:
  4751 ;;		Nothing
  4752 ;; This function is called by:
  4753 ;;		_main
  4754 ;; This function uses a non-reentrant model
  4755 ;;
  4756                           
  4757                           
  4758                           ;psect for function ___xxtofl
  4759  0B4A                     ___xxtofl:	
  4760                           
  4761                           ;incstack = 0
  4762                           ; Regs used in ___xxtofl: [wreg+status,2+status,0]
  4763                           ;___xxtofl@sign stored from wreg
  4764  0B4A  00F8               	movwf	___xxtofl@sign
  4765  0B4B                     l2753:	
  4766  0B4B  0878               	movf	___xxtofl@sign,w
  4767  0B4C  1903               	btfsc	3,2
  4768  0B4D  2B4F               	goto	u3351
  4769  0B4E  2B50               	goto	u3350
  4770  0B4F                     u3351:	
  4771  0B4F  2B64               	goto	l2759
  4772  0B50                     u3350:	
  4773  0B50                     l2755:	
  4774  0B50  1FF3               	btfss	___xxtofl@val+3,7
  4775  0B51  2B53               	goto	u3361
  4776  0B52  2B54               	goto	u3360
  4777  0B53                     u3361:	
  4778  0B53  2B64               	goto	l2759
  4779  0B54                     u3360:	
  4780  0B54                     l2757:	
  4781  0B54  0970               	comf	___xxtofl@val,w
  4782  0B55  00FA               	movwf	___xxtofl@arg
  4783  0B56  0971               	comf	___xxtofl@val+1,w
  4784  0B57  00FB               	movwf	___xxtofl@arg+1
  4785  0B58  0972               	comf	___xxtofl@val+2,w
  4786  0B59  00FC               	movwf	___xxtofl@arg+2
  4787  0B5A  0973               	comf	___xxtofl@val+3,w
  4788  0B5B  00FD               	movwf	___xxtofl@arg+3
  4789  0B5C  0AFA               	incf	___xxtofl@arg,f
  4790  0B5D  1903               	skipnz
  4791  0B5E  0AFB               	incf	___xxtofl@arg+1,f
  4792  0B5F  1903               	skipnz
  4793  0B60  0AFC               	incf	___xxtofl@arg+2,f
  4794  0B61  1903               	skipnz
  4795  0B62  0AFD               	incf	___xxtofl@arg+3,f
  4796  0B63  2B6C               	goto	l766
  4797  0B64                     l2759:	
  4798  0B64  0873               	movf	___xxtofl@val+3,w
  4799  0B65  00FD               	movwf	___xxtofl@arg+3
  4800  0B66  0872               	movf	___xxtofl@val+2,w
  4801  0B67  00FC               	movwf	___xxtofl@arg+2
  4802  0B68  0871               	movf	___xxtofl@val+1,w
  4803  0B69  00FB               	movwf	___xxtofl@arg+1
  4804  0B6A  0870               	movf	___xxtofl@val,w
  4805  0B6B  00FA               	movwf	___xxtofl@arg
  4806  0B6C                     l766:	
  4807  0B6C  0873               	movf	___xxtofl@val+3,w
  4808  0B6D  0472               	iorwf	___xxtofl@val+2,w
  4809  0B6E  0471               	iorwf	___xxtofl@val+1,w
  4810  0B6F  0470               	iorwf	___xxtofl@val,w
  4811  0B70  1D03               	skipz
  4812  0B71  2B73               	goto	u3371
  4813  0B72  2B74               	goto	u3370
  4814  0B73                     u3371:	
  4815  0B73  2B7D               	goto	l2765
  4816  0B74                     u3370:	
  4817  0B74                     l2761:	
  4818  0B74  3000               	movlw	0
  4819  0B75  00F3               	movwf	?___xxtofl+3
  4820  0B76  3000               	movlw	0
  4821  0B77  00F2               	movwf	?___xxtofl+2
  4822  0B78  3000               	movlw	0
  4823  0B79  00F1               	movwf	?___xxtofl+1
  4824  0B7A  3000               	movlw	0
  4825  0B7B  00F0               	movwf	?___xxtofl
  4826  0B7C  2BF5               	goto	l768
  4827  0B7D                     l2765:	
  4828  0B7D  3096               	movlw	150
  4829  0B7E  00F4               	movwf	??___xxtofl
  4830  0B7F  0874               	movf	??___xxtofl,w
  4831  0B80  00F9               	movwf	___xxtofl@exp
  4832  0B81  2B8D               	goto	l2769
  4833  0B82                     l2767:	
  4834  0B82  3001               	movlw	1
  4835  0B83  00F4               	movwf	??___xxtofl
  4836  0B84  0874               	movf	??___xxtofl,w
  4837  0B85  07F9               	addwf	___xxtofl@exp,f
  4838  0B86  3001               	movlw	1
  4839  0B87                     u3385:	
  4840  0B87  36FD               	lsrf	___xxtofl@arg+3,f
  4841  0B88  0CFC               	rrf	___xxtofl@arg+2,f
  4842  0B89  0CFB               	rrf	___xxtofl@arg+1,f
  4843  0B8A  0CFA               	rrf	___xxtofl@arg,f
  4844  0B8B  0B89               	decfsz	9,f
  4845  0B8C  2B87               	goto	u3385
  4846  0B8D                     l2769:	
  4847  0B8D  30FE               	movlw	254
  4848  0B8E  057D               	andwf	___xxtofl@arg+3,w
  4849  0B8F  1D03               	btfss	3,2
  4850  0B90  2B92               	goto	u3391
  4851  0B91  2B93               	goto	u3390
  4852  0B92                     u3391:	
  4853  0B92  2B82               	goto	l2767
  4854  0B93                     u3390:	
  4855  0B93  2BA7               	goto	l772
  4856  0B94                     l2771:	
  4857  0B94  3001               	movlw	1
  4858  0B95  00F4               	movwf	??___xxtofl
  4859  0B96  0874               	movf	??___xxtofl,w
  4860  0B97  07F9               	addwf	___xxtofl@exp,f
  4861  0B98                     l2773:	
  4862  0B98  3001               	movlw	1
  4863  0B99  07FA               	addwf	___xxtofl@arg,f
  4864  0B9A  3000               	movlw	0
  4865  0B9B  3DFB               	addwfc	___xxtofl@arg+1,f
  4866  0B9C  3000               	movlw	0
  4867  0B9D  3DFC               	addwfc	___xxtofl@arg+2,f
  4868  0B9E  3000               	movlw	0
  4869  0B9F  3DFD               	addwfc	___xxtofl@arg+3,f
  4870  0BA0                     l2775:	
  4871  0BA0  3001               	movlw	1
  4872  0BA1                     u3405:	
  4873  0BA1  36FD               	lsrf	___xxtofl@arg+3,f
  4874  0BA2  0CFC               	rrf	___xxtofl@arg+2,f
  4875  0BA3  0CFB               	rrf	___xxtofl@arg+1,f
  4876  0BA4  0CFA               	rrf	___xxtofl@arg,f
  4877  0BA5  0B89               	decfsz	9,f
  4878  0BA6  2BA1               	goto	u3405
  4879  0BA7                     l772:	
  4880  0BA7  30FF               	movlw	255
  4881  0BA8  057D               	andwf	___xxtofl@arg+3,w
  4882  0BA9  1D03               	btfss	3,2
  4883  0BAA  2BAC               	goto	u3411
  4884  0BAB  2BAD               	goto	u3410
  4885  0BAC                     u3411:	
  4886  0BAC  2B94               	goto	l2771
  4887  0BAD                     u3410:	
  4888  0BAD  2BB7               	goto	l2779
  4889  0BAE                     l2777:	
  4890  0BAE  3001               	movlw	1
  4891  0BAF  02F9               	subwf	___xxtofl@exp,f
  4892  0BB0  3001               	movlw	1
  4893  0BB1                     u3425:	
  4894  0BB1  35FA               	lslf	___xxtofl@arg,f
  4895  0BB2  0DFB               	rlf	___xxtofl@arg+1,f
  4896  0BB3  0DFC               	rlf	___xxtofl@arg+2,f
  4897  0BB4  0DFD               	rlf	___xxtofl@arg+3,f
  4898  0BB5  0B89               	decfsz	9,f
  4899  0BB6  2BB1               	goto	u3425
  4900  0BB7                     l2779:	
  4901  0BB7  1BFC               	btfsc	___xxtofl@arg+2,7
  4902  0BB8  2BBA               	goto	u3431
  4903  0BB9  2BBB               	goto	u3430
  4904  0BBA                     u3431:	
  4905  0BBA  2BC1               	goto	l779
  4906  0BBB                     u3430:	
  4907  0BBB                     l2781:	
  4908  0BBB  3002               	movlw	2
  4909  0BBC  0279               	subwf	___xxtofl@exp,w
  4910  0BBD  1803               	skipnc
  4911  0BBE  2BC0               	goto	u3441
  4912  0BBF  2BC1               	goto	u3440
  4913  0BC0                     u3441:	
  4914  0BC0  2BAE               	goto	l2777
  4915  0BC1                     u3440:	
  4916  0BC1                     l779:	
  4917  0BC1  1879               	btfsc	___xxtofl@exp,0
  4918  0BC2  2BC4               	goto	u3451
  4919  0BC3  2BC5               	goto	u3450
  4920  0BC4                     u3451:	
  4921  0BC4  2BCD               	goto	l780
  4922  0BC5                     u3450:	
  4923  0BC5                     l2783:	
  4924  0BC5  30FF               	movlw	255
  4925  0BC6  05FA               	andwf	___xxtofl@arg,f
  4926  0BC7  30FF               	movlw	255
  4927  0BC8  05FB               	andwf	___xxtofl@arg+1,f
  4928  0BC9  307F               	movlw	127
  4929  0BCA  05FC               	andwf	___xxtofl@arg+2,f
  4930  0BCB  30FF               	movlw	255
  4931  0BCC  05FD               	andwf	___xxtofl@arg+3,f
  4932  0BCD                     l780:	
  4933  0BCD  1003               	clrc
  4934  0BCE  0CF9               	rrf	___xxtofl@exp,f
  4935  0BCF                     l2785:	
  4936  0BCF  0879               	movf	___xxtofl@exp,w
  4937  0BD0  00F4               	movwf	??___xxtofl
  4938  0BD1  01F5               	clrf	??___xxtofl+1
  4939  0BD2  01F6               	clrf	??___xxtofl+2
  4940  0BD3  01F7               	clrf	??___xxtofl+3
  4941  0BD4  3018               	movlw	24
  4942  0BD5                     u3465:	
  4943  0BD5  35F4               	lslf	??___xxtofl,f
  4944  0BD6  0DF5               	rlf	??___xxtofl+1,f
  4945  0BD7  0DF6               	rlf	??___xxtofl+2,f
  4946  0BD8  0DF7               	rlf	??___xxtofl+3,f
  4947  0BD9                     u3460:	
  4948  0BD9  0B89               	decfsz	9,f
  4949  0BDA  2BD5               	goto	u3465
  4950  0BDB  0874               	movf	??___xxtofl,w
  4951  0BDC  04FA               	iorwf	___xxtofl@arg,f
  4952  0BDD  0875               	movf	??___xxtofl+1,w
  4953  0BDE  04FB               	iorwf	___xxtofl@arg+1,f
  4954  0BDF  0876               	movf	??___xxtofl+2,w
  4955  0BE0  04FC               	iorwf	___xxtofl@arg+2,f
  4956  0BE1  0877               	movf	??___xxtofl+3,w
  4957  0BE2  04FD               	iorwf	___xxtofl@arg+3,f
  4958  0BE3                     l2787:	
  4959  0BE3  0878               	movf	___xxtofl@sign,w
  4960  0BE4  1903               	btfsc	3,2
  4961  0BE5  2BE7               	goto	u3471
  4962  0BE6  2BE8               	goto	u3470
  4963  0BE7                     u3471:	
  4964  0BE7  2BED               	goto	l2793
  4965  0BE8                     u3470:	
  4966  0BE8                     l2789:	
  4967  0BE8  1FF3               	btfss	___xxtofl@val+3,7
  4968  0BE9  2BEB               	goto	u3481
  4969  0BEA  2BEC               	goto	u3480
  4970  0BEB                     u3481:	
  4971  0BEB  2BED               	goto	l2793
  4972  0BEC                     u3480:	
  4973  0BEC                     l2791:	
  4974  0BEC  17FD               	bsf	___xxtofl@arg+3,7
  4975  0BED                     l2793:	
  4976  0BED  087D               	movf	___xxtofl@arg+3,w
  4977  0BEE  00F3               	movwf	?___xxtofl+3
  4978  0BEF  087C               	movf	___xxtofl@arg+2,w
  4979  0BF0  00F2               	movwf	?___xxtofl+2
  4980  0BF1  087B               	movf	___xxtofl@arg+1,w
  4981  0BF2  00F1               	movwf	?___xxtofl+1
  4982  0BF3  087A               	movf	___xxtofl@arg,w
  4983  0BF4  00F0               	movwf	?___xxtofl
  4984  0BF5                     l768:	
  4985  0BF5  0008               	return
  4986  0BF6                     __end_of___xxtofl:	
  4987                           
  4988                           	psect	text18
  4989  09A1                     __ptext18:	
  4990 ;; *************** function ___fltol *****************
  4991 ;; Defined at:
  4992 ;;		line 43 in file "C:\Program Files (x86)\Microchip\xc8\v2.10\pic\sources\c99\common\fltol.c"
  4993 ;; Parameters:    Size  Location     Type
  4994 ;;  f1              4   52[BANK0 ] unsigned char 
  4995 ;; Auto vars:     Size  Location     Type
  4996 ;;  exp1            1   62[BANK0 ] unsigned char 
  4997 ;;  sign1           1   61[BANK0 ] unsigned char 
  4998 ;; Return value:  Size  Location     Type
  4999 ;;                  4   52[BANK0 ] long 
  5000 ;; Registers used:
  5001 ;;		wreg, status,2, status,0
  5002 ;; Tracked objects:
  5003 ;;		On entry : 0/0
  5004 ;;		On exit  : 0/0
  5005 ;;		Unchanged: 0/0
  5006 ;; Data sizes:     COMMON   BANK0   BANK1   BANK2   BANK3   BANK4   BANK5   BANK6   BANK7   BANK8   BANK9  BANK10  BANK1
      +1  BANK12
  5007 ;;      Params:         0       4       0       0       0       0       0       0       0       0       0       0       
      +0       0
  5008 ;;      Locals:         0       2       0       0       0       0       0       0       0       0       0       0       
      +0       0
  5009 ;;      Temps:          0       5       0       0       0       0       0       0       0       0       0       0       
      +0       0
  5010 ;;      Totals:         0      11       0       0       0       0       0       0       0       0       0       0       
      +0       0
  5011 ;;Total ram usage:       11 bytes
  5012 ;; Hardware stack levels used:    1
  5013 ;; This function calls:
  5014 ;;		Nothing
  5015 ;; This function is called by:
  5016 ;;		_main
  5017 ;; This function uses a non-reentrant model
  5018 ;;
  5019                           
  5020                           
  5021                           ;psect for function ___fltol
  5022  09A1                     ___fltol:	
  5023  09A1                     l2437:	
  5024                           ;incstack = 0
  5025                           ; Regs used in ___fltol: [wreg+status,2+status,0]
  5026                           
  5027  09A1  1003               	clrc
  5028  09A2  0020               	movlb	0	; select bank0
  5029  09A3  0D56               	rlf	___fltol@f1+2,w
  5030  09A4  0D57               	rlf	___fltol@f1+3,w
  5031  09A5  00D8               	movwf	??___fltol
  5032  09A6  0858               	movf	??___fltol,w
  5033  09A7  00DE               	movwf	___fltol@exp1
  5034  09A8  085E               	movf	___fltol@exp1,w
  5035  09A9  1D03               	btfss	3,2
  5036  09AA  29AC               	goto	u2701
  5037  09AB  29AD               	goto	u2700
  5038  09AC                     u2701:	
  5039  09AC  29B6               	goto	l2443
  5040  09AD                     u2700:	
  5041  09AD                     l2439:	
  5042  09AD  3000               	movlw	0
  5043  09AE  00D7               	movwf	?___fltol+3
  5044  09AF  3000               	movlw	0
  5045  09B0  00D6               	movwf	?___fltol+2
  5046  09B1  3000               	movlw	0
  5047  09B2  00D5               	movwf	?___fltol+1
  5048  09B3  3000               	movlw	0
  5049  09B4  00D4               	movwf	?___fltol
  5050  09B5  2A15               	goto	l525
  5051  09B6                     l2443:	
  5052  09B6  0854               	movf	___fltol@f1,w
  5053  09B7  00D8               	movwf	??___fltol
  5054  09B8  0855               	movf	___fltol@f1+1,w
  5055  09B9  00D9               	movwf	??___fltol+1
  5056  09BA  0856               	movf	___fltol@f1+2,w
  5057  09BB  00DA               	movwf	??___fltol+2
  5058  09BC  0857               	movf	___fltol@f1+3,w
  5059  09BD  00DB               	movwf	??___fltol+3
  5060  09BE  301F               	movlw	31
  5061  09BF                     u2715:	
  5062  09BF  36DB               	lsrf	??___fltol+3,f
  5063  09C0  0CDA               	rrf	??___fltol+2,f
  5064  09C1  0CD9               	rrf	??___fltol+1,f
  5065  09C2  0CD8               	rrf	??___fltol,f
  5066  09C3                     u2710:	
  5067  09C3  0B89               	decfsz	9,f
  5068  09C4  29BF               	goto	u2715
  5069  09C5  0858               	movf	??___fltol,w
  5070  09C6  00DC               	movwf	??___fltol+4
  5071  09C7  085C               	movf	??___fltol+4,w
  5072  09C8  00DD               	movwf	___fltol@sign1
  5073  09C9                     l2445:	
  5074  09C9  17D6               	bsf	___fltol@f1+2,7
  5075  09CA                     l2447:	
  5076  09CA  30FF               	movlw	255
  5077  09CB  05D4               	andwf	___fltol@f1,f
  5078  09CC  30FF               	movlw	255
  5079  09CD  05D5               	andwf	___fltol@f1+1,f
  5080  09CE  30FF               	movlw	255
  5081  09CF  05D6               	andwf	___fltol@f1+2,f
  5082  09D0  3000               	movlw	0
  5083  09D1  05D7               	andwf	___fltol@f1+3,f
  5084  09D2                     l2449:	
  5085  09D2  3096               	movlw	150
  5086  09D3  02DE               	subwf	___fltol@exp1,f
  5087  09D4                     l2451:	
  5088  09D4  1FDE               	btfss	___fltol@exp1,7
  5089  09D5  29D7               	goto	u2721
  5090  09D6  29D8               	goto	u2720
  5091  09D7                     u2721:	
  5092  09D7  29F0               	goto	l2461
  5093  09D8                     u2720:	
  5094  09D8                     l2453:	
  5095  09D8  085E               	movf	___fltol@exp1,w
  5096  09D9  3A80               	xorlw	128
  5097  09DA  3E97               	addlw	151
  5098  09DB  1803               	skipnc
  5099  09DC  29DE               	goto	u2731
  5100  09DD  29DF               	goto	u2730
  5101  09DE                     u2731:	
  5102  09DE  29E0               	goto	l2459
  5103  09DF                     u2730:	
  5104  09DF  29AD               	goto	l2439
  5105  09E0                     l2459:	
  5106  09E0  3001               	movlw	1
  5107  09E1                     u2745:	
  5108  09E1  36D7               	lsrf	___fltol@f1+3,f
  5109  09E2  0CD6               	rrf	___fltol@f1+2,f
  5110  09E3  0CD5               	rrf	___fltol@f1+1,f
  5111  09E4  0CD4               	rrf	___fltol@f1,f
  5112  09E5  0B89               	decfsz	9,f
  5113  09E6  29E1               	goto	u2745
  5114  09E7  3001               	movlw	1
  5115  09E8  00D8               	movwf	??___fltol
  5116  09E9  0858               	movf	??___fltol,w
  5117  09EA  07DE               	addwf	___fltol@exp1,f
  5118  09EB  1D03               	btfss	3,2
  5119  09EC  29EE               	goto	u2751
  5120  09ED  29EF               	goto	u2750
  5121  09EE                     u2751:	
  5122  09EE  29E0               	goto	l2459
  5123  09EF                     u2750:	
  5124  09EF  2A05               	goto	l2469
  5125  09F0                     l2461:	
  5126  09F0  3020               	movlw	32
  5127  09F1  025E               	subwf	___fltol@exp1,w
  5128  09F2  1C03               	skipc
  5129  09F3  29F5               	goto	u2761
  5130  09F4  29F6               	goto	u2760
  5131  09F5                     u2761:	
  5132  09F5  2A00               	goto	l532
  5133  09F6                     u2760:	
  5134  09F6  29AD               	goto	l2439
  5135  09F7                     l2467:	
  5136  09F7  3001               	movlw	1
  5137  09F8                     u2775:	
  5138  09F8  35D4               	lslf	___fltol@f1,f
  5139  09F9  0DD5               	rlf	___fltol@f1+1,f
  5140  09FA  0DD6               	rlf	___fltol@f1+2,f
  5141  09FB  0DD7               	rlf	___fltol@f1+3,f
  5142  09FC  0B89               	decfsz	9,f
  5143  09FD  29F8               	goto	u2775
  5144  09FE  3001               	movlw	1
  5145  09FF  02DE               	subwf	___fltol@exp1,f
  5146  0A00                     l532:	
  5147  0A00  085E               	movf	___fltol@exp1,w
  5148  0A01  1D03               	btfss	3,2
  5149  0A02  2A04               	goto	u2781
  5150  0A03  2A05               	goto	u2780
  5151  0A04                     u2781:	
  5152  0A04  29F7               	goto	l2467
  5153  0A05                     u2780:	
  5154  0A05                     l2469:	
  5155  0A05  085D               	movf	___fltol@sign1,w
  5156  0A06  1903               	btfsc	3,2
  5157  0A07  2A09               	goto	u2791
  5158  0A08  2A0A               	goto	u2790
  5159  0A09                     u2791:	
  5160  0A09  2A15               	goto	l535
  5161  0A0A                     u2790:	
  5162  0A0A                     l2471:	
  5163  0A0A  09D4               	comf	___fltol@f1,f
  5164  0A0B  09D5               	comf	___fltol@f1+1,f
  5165  0A0C  09D6               	comf	___fltol@f1+2,f
  5166  0A0D  09D7               	comf	___fltol@f1+3,f
  5167  0A0E  0AD4               	incf	___fltol@f1,f
  5168  0A0F  1903               	skipnz
  5169  0A10  0AD5               	incf	___fltol@f1+1,f
  5170  0A11  1903               	skipnz
  5171  0A12  0AD6               	incf	___fltol@f1+2,f
  5172  0A13  1903               	skipnz
  5173  0A14  0AD7               	incf	___fltol@f1+3,f
  5174  0A15                     l535:	
  5175  0A15                     l525:	
  5176  0A15  0008               	return
  5177  0A16                     __end_of___fltol:	
  5178                           
  5179                           	psect	text19
  5180  0596                     __ptext19:	
  5181 ;; *************** function ___flmul *****************
  5182 ;; Defined at:
  5183 ;;		line 8 in file "C:\Program Files (x86)\Microchip\xc8\v2.10\pic\sources\c99\common\sprcmul.c"
  5184 ;; Parameters:    Size  Location     Type
  5185 ;;  b               4    0[BANK0 ] long 
  5186 ;;  a               4    4[BANK0 ] long 
  5187 ;; Auto vars:     Size  Location     Type
  5188 ;;  prod            4   20[BANK0 ] struct .
  5189 ;;  grs             4   14[BANK0 ] unsigned long 
  5190 ;;  temp            2   24[BANK0 ] struct .
  5191 ;;  bexp            1   19[BANK0 ] unsigned char 
  5192 ;;  aexp            1   18[BANK0 ] unsigned char 
  5193 ;;  sign            1   13[BANK0 ] unsigned char 
  5194 ;; Return value:  Size  Location     Type
  5195 ;;                  4    0[BANK0 ] unsigned char 
  5196 ;; Registers used:
  5197 ;;		wreg, status,2, status,0, pclath, cstack
  5198 ;; Tracked objects:
  5199 ;;		On entry : 0/0
  5200 ;;		On exit  : 0/0
  5201 ;;		Unchanged: 0/0
  5202 ;; Data sizes:     COMMON   BANK0   BANK1   BANK2   BANK3   BANK4   BANK5   BANK6   BANK7   BANK8   BANK9  BANK10  BANK1
      +1  BANK12
  5203 ;;      Params:         0       8       0       0       0       0       0       0       0       0       0       0       
      +0       0
  5204 ;;      Locals:         0      13       0       0       0       0       0       0       0       0       0       0       
      +0       0
  5205 ;;      Temps:          0       5       0       0       0       0       0       0       0       0       0       0       
      +0       0
  5206 ;;      Totals:         0      26       0       0       0       0       0       0       0       0       0       0       
      +0       0
  5207 ;;Total ram usage:       26 bytes
  5208 ;; Hardware stack levels used:    1
  5209 ;; Hardware stack levels required when called:    1
  5210 ;; This function calls:
  5211 ;;		__Umul8_16
  5212 ;; This function is called by:
  5213 ;;		_main
  5214 ;; This function uses a non-reentrant model
  5215 ;;
  5216                           
  5217                           
  5218                           ;psect for function ___flmul
  5219  0596                     ___flmul:	
  5220  0596                     l2613:	
  5221                           ;incstack = 0
  5222                           ; Regs used in ___flmul: [wreg+status,2+status,0+pclath+cstack]
  5223                           
  5224  0596  0020               	movlb	0	; select bank0
  5225  0597  0823               	movf	___flmul@b+3,w
  5226  0598  3980               	andlw	128
  5227  0599  00A8               	movwf	??___flmul
  5228  059A  0828               	movf	??___flmul,w
  5229  059B  00AD               	movwf	___flmul@sign
  5230  059C                     l2615:	
  5231  059C  3523               	lslf	___flmul@b+3,w
  5232  059D  00A8               	movwf	??___flmul
  5233  059E  0828               	movf	??___flmul,w
  5234  059F  00B3               	movwf	___flmul@bexp
  5235  05A0                     l2617:	
  5236  05A0  1FA2               	btfss	___flmul@b+2,7
  5237  05A1  2DA3               	goto	u3091
  5238  05A2  2DA4               	goto	u3090
  5239  05A3                     u3091:	
  5240  05A3  2DA5               	goto	l2621
  5241  05A4                     u3090:	
  5242  05A4                     l2619:	
  5243  05A4  1433               	bsf	___flmul@bexp,0
  5244  05A5                     l2621:	
  5245  05A5  0833               	movf	___flmul@bexp,w
  5246  05A6  1903               	btfsc	3,2
  5247  05A7  2DA9               	goto	u3101
  5248  05A8  2DAA               	goto	u3100
  5249  05A9                     u3101:	
  5250  05A9  2DB9               	goto	l2629
  5251  05AA                     u3100:	
  5252  05AA                     l2623:	
  5253  05AA  0A33               	incf	___flmul@bexp,w
  5254  05AB  1D03               	btfss	3,2
  5255  05AC  2DAE               	goto	u3111
  5256  05AD  2DAF               	goto	u3110
  5257  05AE                     u3111:	
  5258  05AE  2DB7               	goto	l2627
  5259  05AF                     u3110:	
  5260  05AF                     l2625:	
  5261  05AF  3000               	movlw	0
  5262  05B0  00A3               	movwf	___flmul@b+3
  5263  05B1  3000               	movlw	0
  5264  05B2  00A2               	movwf	___flmul@b+2
  5265  05B3  3000               	movlw	0
  5266  05B4  00A1               	movwf	___flmul@b+1
  5267  05B5  3000               	movlw	0
  5268  05B6  00A0               	movwf	___flmul@b
  5269  05B7                     l2627:	
  5270  05B7  17A2               	bsf	___flmul@b+2,7
  5271  05B8  2DC1               	goto	l2631
  5272  05B9                     l2629:	
  5273  05B9  3000               	movlw	0
  5274  05BA  00A3               	movwf	___flmul@b+3
  5275  05BB  3000               	movlw	0
  5276  05BC  00A2               	movwf	___flmul@b+2
  5277  05BD  3000               	movlw	0
  5278  05BE  00A1               	movwf	___flmul@b+1
  5279  05BF  3000               	movlw	0
  5280  05C0  00A0               	movwf	___flmul@b
  5281  05C1                     l2631:	
  5282  05C1  0827               	movf	___flmul@a+3,w
  5283  05C2  3980               	andlw	128
  5284  05C3  00A8               	movwf	??___flmul
  5285  05C4  0828               	movf	??___flmul,w
  5286  05C5  06AD               	xorwf	___flmul@sign,f
  5287  05C6                     l2633:	
  5288  05C6  3527               	lslf	___flmul@a+3,w
  5289  05C7  00A8               	movwf	??___flmul
  5290  05C8  0828               	movf	??___flmul,w
  5291  05C9  00B2               	movwf	___flmul@aexp
  5292  05CA                     l2635:	
  5293  05CA  1FA6               	btfss	___flmul@a+2,7
  5294  05CB  2DCD               	goto	u3121
  5295  05CC  2DCE               	goto	u3120
  5296  05CD                     u3121:	
  5297  05CD  2DCF               	goto	l2639
  5298  05CE                     u3120:	
  5299  05CE                     l2637:	
  5300  05CE  1432               	bsf	___flmul@aexp,0
  5301  05CF                     l2639:	
  5302  05CF  0832               	movf	___flmul@aexp,w
  5303  05D0  1903               	btfsc	3,2
  5304  05D1  2DD3               	goto	u3131
  5305  05D2  2DD4               	goto	u3130
  5306  05D3                     u3131:	
  5307  05D3  2DE3               	goto	l2647
  5308  05D4                     u3130:	
  5309  05D4                     l2641:	
  5310  05D4  0A32               	incf	___flmul@aexp,w
  5311  05D5  1D03               	btfss	3,2
  5312  05D6  2DD8               	goto	u3141
  5313  05D7  2DD9               	goto	u3140
  5314  05D8                     u3141:	
  5315  05D8  2DE1               	goto	l2645
  5316  05D9                     u3140:	
  5317  05D9                     l2643:	
  5318  05D9  3000               	movlw	0
  5319  05DA  00A7               	movwf	___flmul@a+3
  5320  05DB  3000               	movlw	0
  5321  05DC  00A6               	movwf	___flmul@a+2
  5322  05DD  3000               	movlw	0
  5323  05DE  00A5               	movwf	___flmul@a+1
  5324  05DF  3000               	movlw	0
  5325  05E0  00A4               	movwf	___flmul@a
  5326  05E1                     l2645:	
  5327  05E1  17A6               	bsf	___flmul@a+2,7
  5328  05E2  2DEB               	goto	l2649
  5329  05E3                     l2647:	
  5330  05E3  3000               	movlw	0
  5331  05E4  00A7               	movwf	___flmul@a+3
  5332  05E5  3000               	movlw	0
  5333  05E6  00A6               	movwf	___flmul@a+2
  5334  05E7  3000               	movlw	0
  5335  05E8  00A5               	movwf	___flmul@a+1
  5336  05E9  3000               	movlw	0
  5337  05EA  00A4               	movwf	___flmul@a
  5338  05EB                     l2649:	
  5339  05EB  0832               	movf	___flmul@aexp,w
  5340  05EC  1903               	btfsc	3,2
  5341  05ED  2DEF               	goto	u3151
  5342  05EE  2DF0               	goto	u3150
  5343  05EF                     u3151:	
  5344  05EF  2DF5               	goto	l2653
  5345  05F0                     u3150:	
  5346  05F0                     l2651:	
  5347  05F0  0833               	movf	___flmul@bexp,w
  5348  05F1  1D03               	btfss	3,2
  5349  05F2  2DF4               	goto	u3161
  5350  05F3  2DF5               	goto	u3160
  5351  05F4                     u3161:	
  5352  05F4  2DFE               	goto	l2657
  5353  05F5                     u3160:	
  5354  05F5                     l2653:	
  5355  05F5  3000               	movlw	0
  5356  05F6  00A3               	movwf	?___flmul+3
  5357  05F7  3000               	movlw	0
  5358  05F8  00A2               	movwf	?___flmul+2
  5359  05F9  3000               	movlw	0
  5360  05FA  00A1               	movwf	?___flmul+1
  5361  05FB  3000               	movlw	0
  5362  05FC  00A0               	movwf	?___flmul
  5363  05FD  2FEC               	goto	l728
  5364  05FE                     l2657:	
  5365  05FE  0820               	movf	___flmul@b,w
  5366  05FF  00A8               	movwf	??___flmul
  5367  0600  0828               	movf	??___flmul,w
  5368  0601  00F0               	movwf	__Umul8_16@multiplicand
  5369  0602  0826               	movf	___flmul@a+2,w
  5370  0603  3188  200F  3185   	fcall	__Umul8_16
  5371  0606  0871               	movf	?__Umul8_16+1,w
  5372  0607  0020               	movlb	0	; select bank0
  5373  0608  00B9               	movwf	___flmul@temp+1
  5374  0609  0870               	movf	?__Umul8_16,w
  5375  060A  00B8               	movwf	___flmul@temp
  5376  060B                     l2659:	
  5377  060B  0838               	movf	___flmul@temp,w
  5378  060C  00A8               	movwf	??___flmul
  5379  060D  01A9               	clrf	??___flmul+1
  5380  060E  01AA               	clrf	??___flmul+2
  5381  060F  01AB               	clrf	??___flmul+3
  5382  0610  082B               	movf	??___flmul+3,w
  5383  0611  00B1               	movwf	___flmul@grs+3
  5384  0612  082A               	movf	??___flmul+2,w
  5385  0613  00B0               	movwf	___flmul@grs+2
  5386  0614  0829               	movf	??___flmul+1,w
  5387  0615  00AF               	movwf	___flmul@grs+1
  5388  0616  0828               	movf	??___flmul,w
  5389  0617  00AE               	movwf	___flmul@grs
  5390  0618                     l2661:	
  5391  0618  0839               	movf	___flmul@temp+1,w
  5392  0619  00A8               	movwf	??___flmul
  5393  061A  01A9               	clrf	??___flmul+1
  5394  061B  01AA               	clrf	??___flmul+2
  5395  061C  01AB               	clrf	??___flmul+3
  5396  061D  082B               	movf	??___flmul+3,w
  5397  061E  00B7               	movwf	___flmul@prod+3
  5398  061F  082A               	movf	??___flmul+2,w
  5399  0620  00B6               	movwf	___flmul@prod+2
  5400  0621  0829               	movf	??___flmul+1,w
  5401  0622  00B5               	movwf	___flmul@prod+1
  5402  0623  0828               	movf	??___flmul,w
  5403  0624  00B4               	movwf	___flmul@prod
  5404  0625  0821               	movf	___flmul@b+1,w
  5405  0626  00A8               	movwf	??___flmul
  5406  0627  0828               	movf	??___flmul,w
  5407  0628  00F0               	movwf	__Umul8_16@multiplicand
  5408  0629  0825               	movf	___flmul@a+1,w
  5409  062A  3188  200F  3185   	fcall	__Umul8_16
  5410  062D  0871               	movf	?__Umul8_16+1,w
  5411  062E  0020               	movlb	0	; select bank0
  5412  062F  00B9               	movwf	___flmul@temp+1
  5413  0630  0870               	movf	?__Umul8_16,w
  5414  0631  00B8               	movwf	___flmul@temp
  5415  0632                     l2663:	
  5416  0632  0838               	movf	___flmul@temp,w
  5417  0633  00A8               	movwf	??___flmul
  5418  0634  01A9               	clrf	??___flmul+1
  5419  0635  01AA               	clrf	??___flmul+2
  5420  0636  01AB               	clrf	??___flmul+3
  5421  0637  0828               	movf	??___flmul,w
  5422  0638  07AE               	addwf	___flmul@grs,f
  5423  0639  0829               	movf	??___flmul+1,w
  5424  063A  3DAF               	addwfc	___flmul@grs+1,f
  5425  063B  082A               	movf	??___flmul+2,w
  5426  063C  3DB0               	addwfc	___flmul@grs+2,f
  5427  063D  082B               	movf	??___flmul+3,w
  5428  063E  3DB1               	addwfc	___flmul@grs+3,f
  5429  063F                     l2665:	
  5430  063F  0839               	movf	___flmul@temp+1,w
  5431  0640  00A8               	movwf	??___flmul
  5432  0641  01A9               	clrf	??___flmul+1
  5433  0642  01AA               	clrf	??___flmul+2
  5434  0643  01AB               	clrf	??___flmul+3
  5435  0644  0828               	movf	??___flmul,w
  5436  0645  07B4               	addwf	___flmul@prod,f
  5437  0646  0829               	movf	??___flmul+1,w
  5438  0647  3DB5               	addwfc	___flmul@prod+1,f
  5439  0648  082A               	movf	??___flmul+2,w
  5440  0649  3DB6               	addwfc	___flmul@prod+2,f
  5441  064A  082B               	movf	??___flmul+3,w
  5442  064B  3DB7               	addwfc	___flmul@prod+3,f
  5443  064C  0822               	movf	___flmul@b+2,w
  5444  064D  00A8               	movwf	??___flmul
  5445  064E  0828               	movf	??___flmul,w
  5446  064F  00F0               	movwf	__Umul8_16@multiplicand
  5447  0650  0824               	movf	___flmul@a,w
  5448  0651  3188  200F  3185   	fcall	__Umul8_16
  5449  0654  0871               	movf	?__Umul8_16+1,w
  5450  0655  0020               	movlb	0	; select bank0
  5451  0656  00B9               	movwf	___flmul@temp+1
  5452  0657  0870               	movf	?__Umul8_16,w
  5453  0658  00B8               	movwf	___flmul@temp
  5454  0659                     l2667:	
  5455  0659  0838               	movf	___flmul@temp,w
  5456  065A  00A8               	movwf	??___flmul
  5457  065B  01A9               	clrf	??___flmul+1
  5458  065C  01AA               	clrf	??___flmul+2
  5459  065D  01AB               	clrf	??___flmul+3
  5460  065E  0828               	movf	??___flmul,w
  5461  065F  07AE               	addwf	___flmul@grs,f
  5462  0660  0829               	movf	??___flmul+1,w
  5463  0661  3DAF               	addwfc	___flmul@grs+1,f
  5464  0662  082A               	movf	??___flmul+2,w
  5465  0663  3DB0               	addwfc	___flmul@grs+2,f
  5466  0664  082B               	movf	??___flmul+3,w
  5467  0665  3DB1               	addwfc	___flmul@grs+3,f
  5468  0666                     l2669:	
  5469  0666  0839               	movf	___flmul@temp+1,w
  5470  0667  00A8               	movwf	??___flmul
  5471  0668  01A9               	clrf	??___flmul+1
  5472  0669  01AA               	clrf	??___flmul+2
  5473  066A  01AB               	clrf	??___flmul+3
  5474  066B  0828               	movf	??___flmul,w
  5475  066C  07B4               	addwf	___flmul@prod,f
  5476  066D  0829               	movf	??___flmul+1,w
  5477  066E  3DB5               	addwfc	___flmul@prod+1,f
  5478  066F  082A               	movf	??___flmul+2,w
  5479  0670  3DB6               	addwfc	___flmul@prod+2,f
  5480  0671  082B               	movf	??___flmul+3,w
  5481  0672  3DB7               	addwfc	___flmul@prod+3,f
  5482  0673                     l2671:	
  5483  0673  3008               	movlw	8
  5484  0674                     u3175:	
  5485  0674  35AE               	lslf	___flmul@grs,f
  5486  0675  0DAF               	rlf	___flmul@grs+1,f
  5487  0676  0DB0               	rlf	___flmul@grs+2,f
  5488  0677  0DB1               	rlf	___flmul@grs+3,f
  5489  0678  0B89               	decfsz	9,f
  5490  0679  2E74               	goto	u3175
  5491  067A                     l2673:	
  5492  067A  0821               	movf	___flmul@b+1,w
  5493  067B  00A8               	movwf	??___flmul
  5494  067C  0828               	movf	??___flmul,w
  5495  067D  00F0               	movwf	__Umul8_16@multiplicand
  5496  067E  0824               	movf	___flmul@a,w
  5497  067F  3188  200F  3185   	fcall	__Umul8_16
  5498  0682  0871               	movf	?__Umul8_16+1,w
  5499  0683  0020               	movlb	0	; select bank0
  5500  0684  00B9               	movwf	___flmul@temp+1
  5501  0685  0870               	movf	?__Umul8_16,w
  5502  0686  00B8               	movwf	___flmul@temp
  5503  0687                     l2675:	
  5504  0687  0838               	movf	___flmul@temp,w
  5505  0688  07AE               	addwf	___flmul@grs,f
  5506  0689  0839               	movf	___flmul@temp+1,w
  5507  068A  3DAF               	addwfc	___flmul@grs+1,f
  5508  068B  3000               	movlw	0
  5509  068C  3DB0               	addwfc	___flmul@grs+2,f
  5510  068D  3DB1               	addwfc	___flmul@grs+3,f
  5511  068E                     l2677:	
  5512  068E  0820               	movf	___flmul@b,w
  5513  068F  00A8               	movwf	??___flmul
  5514  0690  0828               	movf	??___flmul,w
  5515  0691  00F0               	movwf	__Umul8_16@multiplicand
  5516  0692  0825               	movf	___flmul@a+1,w
  5517  0693  3188  200F  3185   	fcall	__Umul8_16
  5518  0696  0871               	movf	?__Umul8_16+1,w
  5519  0697  0020               	movlb	0	; select bank0
  5520  0698  00B9               	movwf	___flmul@temp+1
  5521  0699  0870               	movf	?__Umul8_16,w
  5522  069A  00B8               	movwf	___flmul@temp
  5523  069B                     l2679:	
  5524  069B  0838               	movf	___flmul@temp,w
  5525  069C  07AE               	addwf	___flmul@grs,f
  5526  069D  0839               	movf	___flmul@temp+1,w
  5527  069E  3DAF               	addwfc	___flmul@grs+1,f
  5528  069F  3000               	movlw	0
  5529  06A0  3DB0               	addwfc	___flmul@grs+2,f
  5530  06A1  3DB1               	addwfc	___flmul@grs+3,f
  5531  06A2                     l2681:	
  5532  06A2  3008               	movlw	8
  5533  06A3                     u3185:	
  5534  06A3  35AE               	lslf	___flmul@grs,f
  5535  06A4  0DAF               	rlf	___flmul@grs+1,f
  5536  06A5  0DB0               	rlf	___flmul@grs+2,f
  5537  06A6  0DB1               	rlf	___flmul@grs+3,f
  5538  06A7  0B89               	decfsz	9,f
  5539  06A8  2EA3               	goto	u3185
  5540  06A9  0820               	movf	___flmul@b,w
  5541  06AA  00A8               	movwf	??___flmul
  5542  06AB  0828               	movf	??___flmul,w
  5543  06AC  00F0               	movwf	__Umul8_16@multiplicand
  5544  06AD  0824               	movf	___flmul@a,w
  5545  06AE  3188  200F  3185   	fcall	__Umul8_16
  5546  06B1  0871               	movf	?__Umul8_16+1,w
  5547  06B2  0020               	movlb	0	; select bank0
  5548  06B3  00B9               	movwf	___flmul@temp+1
  5549  06B4  0870               	movf	?__Umul8_16,w
  5550  06B5  00B8               	movwf	___flmul@temp
  5551  06B6                     l2683:	
  5552  06B6  0838               	movf	___flmul@temp,w
  5553  06B7  07AE               	addwf	___flmul@grs,f
  5554  06B8  0839               	movf	___flmul@temp+1,w
  5555  06B9  3DAF               	addwfc	___flmul@grs+1,f
  5556  06BA  3000               	movlw	0
  5557  06BB  3DB0               	addwfc	___flmul@grs+2,f
  5558  06BC  3DB1               	addwfc	___flmul@grs+3,f
  5559  06BD                     l2685:	
  5560  06BD  0821               	movf	___flmul@b+1,w
  5561  06BE  00A8               	movwf	??___flmul
  5562  06BF  0828               	movf	??___flmul,w
  5563  06C0  00F0               	movwf	__Umul8_16@multiplicand
  5564  06C1  0826               	movf	___flmul@a+2,w
  5565  06C2  3188  200F  3185   	fcall	__Umul8_16
  5566  06C5  0871               	movf	?__Umul8_16+1,w
  5567  06C6  0020               	movlb	0	; select bank0
  5568  06C7  00B9               	movwf	___flmul@temp+1
  5569  06C8  0870               	movf	?__Umul8_16,w
  5570  06C9  00B8               	movwf	___flmul@temp
  5571  06CA  0838               	movf	___flmul@temp,w
  5572  06CB  07B4               	addwf	___flmul@prod,f
  5573  06CC  0839               	movf	___flmul@temp+1,w
  5574  06CD  3DB5               	addwfc	___flmul@prod+1,f
  5575  06CE  3000               	movlw	0
  5576  06CF  3DB6               	addwfc	___flmul@prod+2,f
  5577  06D0  3DB7               	addwfc	___flmul@prod+3,f
  5578  06D1                     l2687:	
  5579  06D1  0822               	movf	___flmul@b+2,w
  5580  06D2  00A8               	movwf	??___flmul
  5581  06D3  0828               	movf	??___flmul,w
  5582  06D4  00F0               	movwf	__Umul8_16@multiplicand
  5583  06D5  0825               	movf	___flmul@a+1,w
  5584  06D6  3188  200F  3185   	fcall	__Umul8_16
  5585  06D9  0871               	movf	?__Umul8_16+1,w
  5586  06DA  0020               	movlb	0	; select bank0
  5587  06DB  00B9               	movwf	___flmul@temp+1
  5588  06DC  0870               	movf	?__Umul8_16,w
  5589  06DD  00B8               	movwf	___flmul@temp
  5590  06DE                     l2689:	
  5591  06DE  0838               	movf	___flmul@temp,w
  5592  06DF  07B4               	addwf	___flmul@prod,f
  5593  06E0  0839               	movf	___flmul@temp+1,w
  5594  06E1  3DB5               	addwfc	___flmul@prod+1,f
  5595  06E2  3000               	movlw	0
  5596  06E3  3DB6               	addwfc	___flmul@prod+2,f
  5597  06E4  3DB7               	addwfc	___flmul@prod+3,f
  5598  06E5  0822               	movf	___flmul@b+2,w
  5599  06E6  00A8               	movwf	??___flmul
  5600  06E7  0828               	movf	??___flmul,w
  5601  06E8  00F0               	movwf	__Umul8_16@multiplicand
  5602  06E9  0826               	movf	___flmul@a+2,w
  5603  06EA  3188  200F  3185   	fcall	__Umul8_16
  5604  06ED  0871               	movf	?__Umul8_16+1,w
  5605  06EE  0020               	movlb	0	; select bank0
  5606  06EF  00B9               	movwf	___flmul@temp+1
  5607  06F0  0870               	movf	?__Umul8_16,w
  5608  06F1  00B8               	movwf	___flmul@temp
  5609  06F2                     l2691:	
  5610  06F2  0838               	movf	___flmul@temp,w
  5611  06F3  00A8               	movwf	??___flmul
  5612  06F4  0839               	movf	___flmul@temp+1,w
  5613  06F5  00A9               	movwf	??___flmul+1
  5614  06F6  01AA               	clrf	??___flmul+2
  5615  06F7  01AB               	clrf	??___flmul+3
  5616  06F8  3008               	movlw	8
  5617  06F9                     u3195:	
  5618  06F9  35A8               	lslf	??___flmul,f
  5619  06FA  0DA9               	rlf	??___flmul+1,f
  5620  06FB  0DAA               	rlf	??___flmul+2,f
  5621  06FC  0DAB               	rlf	??___flmul+3,f
  5622  06FD                     u3190:	
  5623  06FD  0B89               	decfsz	9,f
  5624  06FE  2EF9               	goto	u3195
  5625  06FF  0828               	movf	??___flmul,w
  5626  0700  07B4               	addwf	___flmul@prod,f
  5627  0701  0829               	movf	??___flmul+1,w
  5628  0702  3DB5               	addwfc	___flmul@prod+1,f
  5629  0703  082A               	movf	??___flmul+2,w
  5630  0704  3DB6               	addwfc	___flmul@prod+2,f
  5631  0705  082B               	movf	??___flmul+3,w
  5632  0706  3DB7               	addwfc	___flmul@prod+3,f
  5633  0707                     l2693:	
  5634  0707  082E               	movf	___flmul@grs,w
  5635  0708  00A8               	movwf	??___flmul
  5636  0709  082F               	movf	___flmul@grs+1,w
  5637  070A  00A9               	movwf	??___flmul+1
  5638  070B  0830               	movf	___flmul@grs+2,w
  5639  070C  00AA               	movwf	??___flmul+2
  5640  070D  0831               	movf	___flmul@grs+3,w
  5641  070E  00AB               	movwf	??___flmul+3
  5642  070F  3018               	movlw	24
  5643  0710                     u3205:	
  5644  0710  36AB               	lsrf	??___flmul+3,f
  5645  0711  0CAA               	rrf	??___flmul+2,f
  5646  0712  0CA9               	rrf	??___flmul+1,f
  5647  0713  0CA8               	rrf	??___flmul,f
  5648  0714                     u3200:	
  5649  0714  0B89               	decfsz	9,f
  5650  0715  2F10               	goto	u3205
  5651  0716  0828               	movf	??___flmul,w
  5652  0717  07B4               	addwf	___flmul@prod,f
  5653  0718  0829               	movf	??___flmul+1,w
  5654  0719  3DB5               	addwfc	___flmul@prod+1,f
  5655  071A  082A               	movf	??___flmul+2,w
  5656  071B  3DB6               	addwfc	___flmul@prod+2,f
  5657  071C  082B               	movf	??___flmul+3,w
  5658  071D  3DB7               	addwfc	___flmul@prod+3,f
  5659  071E                     l2695:	
  5660  071E  3008               	movlw	8
  5661  071F                     u3215:	
  5662  071F  35AE               	lslf	___flmul@grs,f
  5663  0720  0DAF               	rlf	___flmul@grs+1,f
  5664  0721  0DB0               	rlf	___flmul@grs+2,f
  5665  0722  0DB1               	rlf	___flmul@grs+3,f
  5666  0723  0B89               	decfsz	9,f
  5667  0724  2F1F               	goto	u3215
  5668  0725                     l2697:	
  5669  0725  0833               	movf	___flmul@bexp,w
  5670  0726  0732               	addwf	___flmul@aexp,w
  5671  0727  00A8               	movwf	??___flmul
  5672  0728  01A9               	clrf	??___flmul+1
  5673  0729  0DA9               	rlf	??___flmul+1,f
  5674  072A  0828               	movf	??___flmul,w
  5675  072B  3E82               	addlw	130
  5676  072C  00B8               	movwf	___flmul@temp
  5677  072D  30FF               	movlw	255
  5678  072E  3D29               	addwfc	??___flmul+1,w
  5679  072F  00B9               	movwf	___flmul@temp+1
  5680  0730  2F48               	goto	l2709
  5681  0731                     l2699:	
  5682  0731  3001               	movlw	1
  5683  0732                     u3225:	
  5684  0732  35B4               	lslf	___flmul@prod,f
  5685  0733  0DB5               	rlf	___flmul@prod+1,f
  5686  0734  0DB6               	rlf	___flmul@prod+2,f
  5687  0735  0DB7               	rlf	___flmul@prod+3,f
  5688  0736  0B89               	decfsz	9,f
  5689  0737  2F32               	goto	u3225
  5690  0738                     l2701:	
  5691  0738  1FB1               	btfss	___flmul@grs+3,7
  5692  0739  2F3B               	goto	u3231
  5693  073A  2F3C               	goto	u3230
  5694  073B                     u3231:	
  5695  073B  2F3D               	goto	l2705
  5696  073C                     u3230:	
  5697  073C                     l2703:	
  5698  073C  1434               	bsf	___flmul@prod,0
  5699  073D                     l2705:	
  5700  073D  3001               	movlw	1
  5701  073E                     u3245:	
  5702  073E  35AE               	lslf	___flmul@grs,f
  5703  073F  0DAF               	rlf	___flmul@grs+1,f
  5704  0740  0DB0               	rlf	___flmul@grs+2,f
  5705  0741  0DB1               	rlf	___flmul@grs+3,f
  5706  0742  0B89               	decfsz	9,f
  5707  0743  2F3E               	goto	u3245
  5708  0744                     l2707:	
  5709  0744  30FF               	movlw	255
  5710  0745  07B8               	addwf	___flmul@temp,f
  5711  0746  30FF               	movlw	255
  5712  0747  3DB9               	addwfc	___flmul@temp+1,f
  5713  0748                     l2709:	
  5714  0748  1FB6               	btfss	___flmul@prod+2,7
  5715  0749  2F4B               	goto	u3251
  5716  074A  2F4C               	goto	u3250
  5717  074B                     u3251:	
  5718  074B  2F31               	goto	l2699
  5719  074C                     u3250:	
  5720  074C                     l2711:	
  5721  074C  01B2               	clrf	___flmul@aexp
  5722  074D                     l2713:	
  5723  074D  1FB1               	btfss	___flmul@grs+3,7
  5724  074E  2F50               	goto	u3261
  5725  074F  2F51               	goto	u3260
  5726  0750                     u3261:	
  5727  0750  2F6D               	goto	l2721
  5728  0751                     u3260:	
  5729  0751                     l2715:	
  5730  0751  30FF               	movlw	255
  5731  0752  052E               	andwf	___flmul@grs,w
  5732  0753  00A8               	movwf	??___flmul
  5733  0754  30FF               	movlw	255
  5734  0755  052F               	andwf	___flmul@grs+1,w
  5735  0756  00A9               	movwf	??___flmul+1
  5736  0757  30FF               	movlw	255
  5737  0758  0530               	andwf	___flmul@grs+2,w
  5738  0759  00AA               	movwf	??___flmul+2
  5739  075A  307F               	movlw	127
  5740  075B  0531               	andwf	___flmul@grs+3,w
  5741  075C  00AB               	movwf	??___flmul+3
  5742  075D  082B               	movf	??___flmul+3,w
  5743  075E  042A               	iorwf	??___flmul+2,w
  5744  075F  0429               	iorwf	??___flmul+1,w
  5745  0760  0428               	iorwf	??___flmul,w
  5746  0761  1903               	skipnz
  5747  0762  2F64               	goto	u3271
  5748  0763  2F65               	goto	u3270
  5749  0764                     u3271:	
  5750  0764  2F68               	goto	l734
  5751  0765                     u3270:	
  5752  0765                     l2717:	
  5753  0765  01B2               	clrf	___flmul@aexp
  5754  0766  0AB2               	incf	___flmul@aexp,f
  5755  0767  2F6D               	goto	l2721
  5756  0768                     l734:	
  5757  0768  1C34               	btfss	___flmul@prod,0
  5758  0769  2F6B               	goto	u3281
  5759  076A  2F6C               	goto	u3280
  5760  076B                     u3281:	
  5761  076B  2F6D               	goto	l2721
  5762  076C                     u3280:	
  5763  076C  2F65               	goto	l2717
  5764  076D                     l2721:	
  5765  076D  0832               	movf	___flmul@aexp,w
  5766  076E  1903               	btfsc	3,2
  5767  076F  2F71               	goto	u3291
  5768  0770  2F72               	goto	u3290
  5769  0771                     u3291:	
  5770  0771  2F9A               	goto	l2731
  5771  0772                     u3290:	
  5772  0772                     l2723:	
  5773  0772  3001               	movlw	1
  5774  0773  07B4               	addwf	___flmul@prod,f
  5775  0774  3000               	movlw	0
  5776  0775  3DB5               	addwfc	___flmul@prod+1,f
  5777  0776  3000               	movlw	0
  5778  0777  3DB6               	addwfc	___flmul@prod+2,f
  5779  0778  3000               	movlw	0
  5780  0779  3DB7               	addwfc	___flmul@prod+3,f
  5781  077A                     l2725:	
  5782  077A  1C37               	btfss	___flmul@prod+3,0
  5783  077B  2F7D               	goto	u3301
  5784  077C  2F7E               	goto	u3300
  5785  077D                     u3301:	
  5786  077D  2F9A               	goto	l2731
  5787  077E                     u3300:	
  5788  077E                     l2727:	
  5789  077E  0834               	movf	___flmul@prod,w
  5790  077F  00A8               	movwf	??___flmul
  5791  0780  0835               	movf	___flmul@prod+1,w
  5792  0781  00A9               	movwf	??___flmul+1
  5793  0782  0836               	movf	___flmul@prod+2,w
  5794  0783  00AA               	movwf	??___flmul+2
  5795  0784  0837               	movf	___flmul@prod+3,w
  5796  0785  00AB               	movwf	??___flmul+3
  5797  0786  3001               	movlw	1
  5798  0787  00AC               	movwf	??___flmul+4
  5799  0788                     u3315:	
  5800  0788  37AB               	asrf	??___flmul+3,f
  5801  0789  0CAA               	rrf	??___flmul+2,f
  5802  078A  0CA9               	rrf	??___flmul+1,f
  5803  078B  0CA8               	rrf	??___flmul,f
  5804  078C                     u3310:	
  5805  078C  0BAC               	decfsz	??___flmul+4,f
  5806  078D  2F88               	goto	u3315
  5807  078E  082B               	movf	??___flmul+3,w
  5808  078F  00B7               	movwf	___flmul@prod+3
  5809  0790  082A               	movf	??___flmul+2,w
  5810  0791  00B6               	movwf	___flmul@prod+2
  5811  0792  0829               	movf	??___flmul+1,w
  5812  0793  00B5               	movwf	___flmul@prod+1
  5813  0794  0828               	movf	??___flmul,w
  5814  0795  00B4               	movwf	___flmul@prod
  5815  0796                     l2729:	
  5816  0796  3001               	movlw	1
  5817  0797  07B8               	addwf	___flmul@temp,f
  5818  0798  3000               	movlw	0
  5819  0799  3DB9               	addwfc	___flmul@temp+1,f
  5820  079A                     l2731:	
  5821  079A  0839               	movf	___flmul@temp+1,w
  5822  079B  3A80               	xorlw	128
  5823  079C  00A8               	movwf	??___flmul
  5824  079D  3080               	movlw	128
  5825  079E  0228               	subwf	??___flmul,w
  5826  079F  1D03               	skipz
  5827  07A0  2FA3               	goto	u3325
  5828  07A1  30FF               	movlw	255
  5829  07A2  0238               	subwf	___flmul@temp,w
  5830  07A3                     u3325:	
  5831  07A3  1C03               	skipc
  5832  07A4  2FA6               	goto	u3321
  5833  07A5  2FA7               	goto	u3320
  5834  07A6                     u3321:	
  5835  07A6  2FB1               	goto	l2735
  5836  07A7                     u3320:	
  5837  07A7                     l2733:	
  5838  07A7  307F               	movlw	127
  5839  07A8  0020               	movlb	0	; select bank0
  5840  07A9  00B7               	movwf	___flmul@prod+3
  5841  07AA  3080               	movlw	128
  5842  07AB  00B6               	movwf	___flmul@prod+2
  5843  07AC  3000               	movlw	0
  5844  07AD  00B5               	movwf	___flmul@prod+1
  5845  07AE  3000               	movlw	0
  5846  07AF  00B4               	movwf	___flmul@prod
  5847  07B0  2FE0               	goto	l740
  5848  07B1                     l2735:	
  5849  07B1  0020               	movlb	0	; select bank0
  5850  07B2  0839               	movf	___flmul@temp+1,w
  5851  07B3  3A80               	xorlw	128
  5852  07B4  00A8               	movwf	??___flmul
  5853  07B5  3080               	movlw	128
  5854  07B6  0228               	subwf	??___flmul,w
  5855  07B7  1D03               	skipz
  5856  07B8  2FBB               	goto	u3335
  5857  07B9  3001               	movlw	1
  5858  07BA  0238               	subwf	___flmul@temp,w
  5859  07BB                     u3335:	
  5860  07BB  1803               	skipnc
  5861  07BC  2FBE               	goto	u3331
  5862  07BD  2FBF               	goto	u3330
  5863  07BE                     u3331:	
  5864  07BE  2FCA               	goto	l2741
  5865  07BF                     u3330:	
  5866  07BF                     l2737:	
  5867  07BF  3000               	movlw	0
  5868  07C0  0020               	movlb	0	; select bank0
  5869  07C1  00B7               	movwf	___flmul@prod+3
  5870  07C2  3000               	movlw	0
  5871  07C3  00B6               	movwf	___flmul@prod+2
  5872  07C4  3000               	movlw	0
  5873  07C5  00B5               	movwf	___flmul@prod+1
  5874  07C6  3000               	movlw	0
  5875  07C7  00B4               	movwf	___flmul@prod
  5876  07C8                     l2739:	
  5877  07C8  01AD               	clrf	___flmul@sign
  5878  07C9  2FE0               	goto	l740
  5879  07CA                     l2741:	
  5880  07CA  0020               	movlb	0	; select bank0
  5881  07CB  0838               	movf	___flmul@temp,w
  5882  07CC  00A8               	movwf	??___flmul
  5883  07CD  0828               	movf	??___flmul,w
  5884  07CE  00B3               	movwf	___flmul@bexp
  5885  07CF  30FF               	movlw	255
  5886  07D0  05B4               	andwf	___flmul@prod,f
  5887  07D1  30FF               	movlw	255
  5888  07D2  05B5               	andwf	___flmul@prod+1,f
  5889  07D3  307F               	movlw	127
  5890  07D4  05B6               	andwf	___flmul@prod+2,f
  5891  07D5  3000               	movlw	0
  5892  07D6  05B7               	andwf	___flmul@prod+3,f
  5893  07D7                     l2743:	
  5894  07D7  1C33               	btfss	___flmul@bexp,0
  5895  07D8  2FDA               	goto	u3341
  5896  07D9  2FDB               	goto	u3340
  5897  07DA                     u3341:	
  5898  07DA  2FDC               	goto	l2747
  5899  07DB                     u3340:	
  5900  07DB                     l2745:	
  5901  07DB  17B6               	bsf	___flmul@prod+2,7
  5902  07DC                     l2747:	
  5903  07DC  3633               	lsrf	___flmul@bexp,w
  5904  07DD  00A8               	movwf	??___flmul
  5905  07DE  0828               	movf	??___flmul,w
  5906  07DF  00B7               	movwf	___flmul@prod+3
  5907  07E0                     l740:	
  5908  07E0  082D               	movf	___flmul@sign,w
  5909  07E1  00A8               	movwf	??___flmul
  5910  07E2  0828               	movf	??___flmul,w
  5911  07E3  04B7               	iorwf	___flmul@prod+3,f
  5912  07E4                     l2749:	
  5913  07E4  0837               	movf	___flmul@prod+3,w
  5914  07E5  00A3               	movwf	?___flmul+3
  5915  07E6  0836               	movf	___flmul@prod+2,w
  5916  07E7  00A2               	movwf	?___flmul+2
  5917  07E8  0835               	movf	___flmul@prod+1,w
  5918  07E9  00A1               	movwf	?___flmul+1
  5919  07EA  0834               	movf	___flmul@prod,w
  5920  07EB  00A0               	movwf	?___flmul
  5921  07EC                     l728:	
  5922  07EC  0008               	return
  5923  07ED                     __end_of___flmul:	
  5924                           
  5925                           	psect	text20
  5926  080F                     __ptext20:	
  5927 ;; *************** function __Umul8_16 *****************
  5928 ;; Defined at:
  5929 ;;		line 4 in file "C:\Program Files (x86)\Microchip\xc8\v2.10\pic\sources\c99\common\Umul8_16.c"
  5930 ;; Parameters:    Size  Location     Type
  5931 ;;  multiplier      1    wreg     unsigned char 
  5932 ;;  multiplicand    1    0[COMMON] unsigned char 
  5933 ;; Auto vars:     Size  Location     Type
  5934 ;;  multiplier      1    8[COMMON] unsigned char 
  5935 ;;  word_mpld       2    6[COMMON] unsigned int 
  5936 ;;  product         2    4[COMMON] unsigned int 
  5937 ;; Return value:  Size  Location     Type
  5938 ;;                  2    0[COMMON] unsigned int 
  5939 ;; Registers used:
  5940 ;;		wreg, status,2, status,0
  5941 ;; Tracked objects:
  5942 ;;		On entry : 0/0
  5943 ;;		On exit  : 0/0
  5944 ;;		Unchanged: 0/0
  5945 ;; Data sizes:     COMMON   BANK0   BANK1   BANK2   BANK3   BANK4   BANK5   BANK6   BANK7   BANK8   BANK9  BANK10  BANK1
      +1  BANK12
  5946 ;;      Params:         2       0       0       0       0       0       0       0       0       0       0       0       
      +0       0
  5947 ;;      Locals:         5       0       0       0       0       0       0       0       0       0       0       0       
      +0       0
  5948 ;;      Temps:          2       0       0       0       0       0       0       0       0       0       0       0       
      +0       0
  5949 ;;      Totals:         9       0       0       0       0       0       0       0       0       0       0       0       
      +0       0
  5950 ;;Total ram usage:        9 bytes
  5951 ;; Hardware stack levels used:    1
  5952 ;; This function calls:
  5953 ;;		Nothing
  5954 ;; This function is called by:
  5955 ;;		___flmul
  5956 ;; This function uses a non-reentrant model
  5957 ;;
  5958                           
  5959                           
  5960                           ;psect for function __Umul8_16
  5961  080F                     __Umul8_16:	
  5962                           
  5963                           ;incstack = 0
  5964                           ; Regs used in __Umul8_16: [wreg+status,2+status,0]
  5965                           ;__Umul8_16@multiplier stored from wreg
  5966  080F  00F8               	movwf	__Umul8_16@multiplier
  5967  0810                     l2335:	
  5968  0810  01F4               	clrf	__Umul8_16@product
  5969  0811  01F5               	clrf	__Umul8_16@product+1
  5970  0812                     l2337:	
  5971  0812  0870               	movf	__Umul8_16@multiplicand,w
  5972  0813  00F2               	movwf	??__Umul8_16
  5973  0814  01F3               	clrf	??__Umul8_16+1
  5974  0815  0872               	movf	??__Umul8_16,w
  5975  0816  00F6               	movwf	__Umul8_16@word_mpld
  5976  0817  0873               	movf	??__Umul8_16+1,w
  5977  0818  00F7               	movwf	__Umul8_16@word_mpld+1
  5978  0819                     l2339:	
  5979  0819  1C78               	btfss	__Umul8_16@multiplier,0
  5980  081A  281C               	goto	u2651
  5981  081B  281D               	goto	u2650
  5982  081C                     u2651:	
  5983  081C  2821               	goto	l873
  5984  081D                     u2650:	
  5985  081D                     l2341:	
  5986  081D  0876               	movf	__Umul8_16@word_mpld,w
  5987  081E  07F4               	addwf	__Umul8_16@product,f
  5988  081F  0877               	movf	__Umul8_16@word_mpld+1,w
  5989  0820  3DF5               	addwfc	__Umul8_16@product+1,f
  5990  0821                     l873:	
  5991  0821  3001               	movlw	1
  5992  0822                     u2665:	
  5993  0822  35F6               	lslf	__Umul8_16@word_mpld,f
  5994  0823  0DF7               	rlf	__Umul8_16@word_mpld+1,f
  5995  0824  0B89               	decfsz	9,f
  5996  0825  2822               	goto	u2665
  5997  0826  1003               	clrc
  5998  0827  0CF8               	rrf	__Umul8_16@multiplier,f
  5999  0828                     l2343:	
  6000  0828  0878               	movf	__Umul8_16@multiplier,w
  6001  0829  1D03               	btfss	3,2
  6002  082A  282C               	goto	u2671
  6003  082B  282D               	goto	u2670
  6004  082C                     u2671:	
  6005  082C  2819               	goto	l2339
  6006  082D                     u2670:	
  6007  082D                     l2345:	
  6008  082D  0875               	movf	__Umul8_16@product+1,w
  6009  082E  00F1               	movwf	?__Umul8_16+1
  6010  082F  0874               	movf	__Umul8_16@product,w
  6011  0830  00F0               	movwf	?__Umul8_16
  6012  0831                     l875:	
  6013  0831  0008               	return
  6014  0832                     __end_of__Umul8_16:	
  6015                           
  6016                           	psect	text21
  6017  03E2                     __ptext21:	
  6018 ;; *************** function ___fldiv *****************
  6019 ;; Defined at:
  6020 ;;		line 8 in file "C:\Program Files (x86)\Microchip\xc8\v2.10\pic\sources\c99\common\sprcdiv.c"
  6021 ;; Parameters:    Size  Location     Type
  6022 ;;  a               4   26[BANK0 ] unsigned int 
  6023 ;;  b               4   30[BANK0 ] unsigned int 
  6024 ;; Auto vars:     Size  Location     Type
  6025 ;;  grs             4   46[BANK0 ] unsigned long 
  6026 ;;  rem             4   39[BANK0 ] unsigned long 
  6027 ;;  new_exp         2   44[BANK0 ] int 
  6028 ;;  aexp            1   51[BANK0 ] unsigned char 
  6029 ;;  bexp            1   50[BANK0 ] unsigned char 
  6030 ;;  sign            1   43[BANK0 ] unsigned char 
  6031 ;; Return value:  Size  Location     Type
  6032 ;;                  4   26[BANK0 ] unsigned char 
  6033 ;; Registers used:
  6034 ;;		wreg, status,2, status,0
  6035 ;; Tracked objects:
  6036 ;;		On entry : 0/0
  6037 ;;		On exit  : 0/0
  6038 ;;		Unchanged: 0/0
  6039 ;; Data sizes:     COMMON   BANK0   BANK1   BANK2   BANK3   BANK4   BANK5   BANK6   BANK7   BANK8   BANK9  BANK10  BANK1
      +1  BANK12
  6040 ;;      Params:         0       8       0       0       0       0       0       0       0       0       0       0       
      +0       0
  6041 ;;      Locals:         0      13       0       0       0       0       0       0       0       0       0       0       
      +0       0
  6042 ;;      Temps:          0       5       0       0       0       0       0       0       0       0       0       0       
      +0       0
  6043 ;;      Totals:         0      26       0       0       0       0       0       0       0       0       0       0       
      +0       0
  6044 ;;Total ram usage:       26 bytes
  6045 ;; Hardware stack levels used:    1
  6046 ;; This function calls:
  6047 ;;		Nothing
  6048 ;; This function is called by:
  6049 ;;		_main
  6050 ;; This function uses a non-reentrant model
  6051 ;;
  6052                           
  6053                           
  6054                           ;psect for function ___fldiv
  6055  03E2                     ___fldiv:	
  6056  03E2                     l2473:	
  6057                           ;incstack = 0
  6058                           ; Regs used in ___fldiv: [wreg+status,2+status,0]
  6059                           
  6060  03E2  0020               	movlb	0	; select bank0
  6061  03E3  0841               	movf	___fldiv@b+3,w
  6062  03E4  3980               	andlw	128
  6063  03E5  00C2               	movwf	??___fldiv
  6064  03E6  0842               	movf	??___fldiv,w
  6065  03E7  00CB               	movwf	___fldiv@sign
  6066  03E8                     l2475:	
  6067  03E8  3541               	lslf	___fldiv@b+3,w
  6068  03E9  00C2               	movwf	??___fldiv
  6069  03EA  0842               	movf	??___fldiv,w
  6070  03EB  00D2               	movwf	___fldiv@bexp
  6071  03EC                     l2477:	
  6072  03EC  1FC0               	btfss	___fldiv@b+2,7
  6073  03ED  2BEF               	goto	u2801
  6074  03EE  2BF0               	goto	u2800
  6075  03EF                     u2801:	
  6076  03EF  2BF1               	goto	l2481
  6077  03F0                     u2800:	
  6078  03F0                     l2479:	
  6079  03F0  1452               	bsf	___fldiv@bexp,0
  6080  03F1                     l2481:	
  6081  03F1  0852               	movf	___fldiv@bexp,w
  6082  03F2  1903               	btfsc	3,2
  6083  03F3  2BF5               	goto	u2811
  6084  03F4  2BF6               	goto	u2810
  6085  03F5                     u2811:	
  6086  03F5  2C06               	goto	l2491
  6087  03F6                     u2810:	
  6088  03F6                     l2483:	
  6089  03F6  0A52               	incf	___fldiv@bexp,w
  6090  03F7  1D03               	btfss	3,2
  6091  03F8  2BFA               	goto	u2821
  6092  03F9  2BFB               	goto	u2820
  6093  03FA                     u2821:	
  6094  03FA  2C03               	goto	l2487
  6095  03FB                     u2820:	
  6096  03FB                     l2485:	
  6097  03FB  3000               	movlw	0
  6098  03FC  00C1               	movwf	___fldiv@b+3
  6099  03FD  3000               	movlw	0
  6100  03FE  00C0               	movwf	___fldiv@b+2
  6101  03FF  3000               	movlw	0
  6102  0400  00BF               	movwf	___fldiv@b+1
  6103  0401  3000               	movlw	0
  6104  0402  00BE               	movwf	___fldiv@b
  6105  0403                     l2487:	
  6106  0403  17C0               	bsf	___fldiv@b+2,7
  6107  0404                     l2489:	
  6108  0404  01C1               	clrf	___fldiv@b+3
  6109  0405  2C0E               	goto	l2493
  6110  0406                     l2491:	
  6111  0406  3000               	movlw	0
  6112  0407  00C1               	movwf	___fldiv@b+3
  6113  0408  3000               	movlw	0
  6114  0409  00C0               	movwf	___fldiv@b+2
  6115  040A  3000               	movlw	0
  6116  040B  00BF               	movwf	___fldiv@b+1
  6117  040C  3000               	movlw	0
  6118  040D  00BE               	movwf	___fldiv@b
  6119  040E                     l2493:	
  6120  040E  083D               	movf	___fldiv@a+3,w
  6121  040F  3980               	andlw	128
  6122  0410  00C2               	movwf	??___fldiv
  6123  0411  0842               	movf	??___fldiv,w
  6124  0412  06CB               	xorwf	___fldiv@sign,f
  6125  0413                     l2495:	
  6126  0413  353D               	lslf	___fldiv@a+3,w
  6127  0414  00C2               	movwf	??___fldiv
  6128  0415  0842               	movf	??___fldiv,w
  6129  0416  00D3               	movwf	___fldiv@aexp
  6130  0417                     l2497:	
  6131  0417  1FBC               	btfss	___fldiv@a+2,7
  6132  0418  2C1A               	goto	u2831
  6133  0419  2C1B               	goto	u2830
  6134  041A                     u2831:	
  6135  041A  2C1C               	goto	l2501
  6136  041B                     u2830:	
  6137  041B                     l2499:	
  6138  041B  1453               	bsf	___fldiv@aexp,0
  6139  041C                     l2501:	
  6140  041C  0853               	movf	___fldiv@aexp,w
  6141  041D  1903               	btfsc	3,2
  6142  041E  2C20               	goto	u2841
  6143  041F  2C21               	goto	u2840
  6144  0420                     u2841:	
  6145  0420  2C31               	goto	l2511
  6146  0421                     u2840:	
  6147  0421                     l2503:	
  6148  0421  0A53               	incf	___fldiv@aexp,w
  6149  0422  1D03               	btfss	3,2
  6150  0423  2C25               	goto	u2851
  6151  0424  2C26               	goto	u2850
  6152  0425                     u2851:	
  6153  0425  2C2E               	goto	l2507
  6154  0426                     u2850:	
  6155  0426                     l2505:	
  6156  0426  3000               	movlw	0
  6157  0427  00BD               	movwf	___fldiv@a+3
  6158  0428  3000               	movlw	0
  6159  0429  00BC               	movwf	___fldiv@a+2
  6160  042A  3000               	movlw	0
  6161  042B  00BB               	movwf	___fldiv@a+1
  6162  042C  3000               	movlw	0
  6163  042D  00BA               	movwf	___fldiv@a
  6164  042E                     l2507:	
  6165  042E  17BC               	bsf	___fldiv@a+2,7
  6166  042F                     l2509:	
  6167  042F  01BD               	clrf	___fldiv@a+3
  6168  0430  2C39               	goto	l688
  6169  0431                     l2511:	
  6170  0431  3000               	movlw	0
  6171  0432  00BD               	movwf	___fldiv@a+3
  6172  0433  3000               	movlw	0
  6173  0434  00BC               	movwf	___fldiv@a+2
  6174  0435  3000               	movlw	0
  6175  0436  00BB               	movwf	___fldiv@a+1
  6176  0437  3000               	movlw	0
  6177  0438  00BA               	movwf	___fldiv@a
  6178  0439                     l688:	
  6179  0439  083D               	movf	___fldiv@a+3,w
  6180  043A  043C               	iorwf	___fldiv@a+2,w
  6181  043B  043B               	iorwf	___fldiv@a+1,w
  6182  043C  043A               	iorwf	___fldiv@a,w
  6183  043D  1D03               	skipz
  6184  043E  2C40               	goto	u2861
  6185  043F  2C41               	goto	u2860
  6186  0440                     u2861:	
  6187  0440  2C5A               	goto	l2521
  6188  0441                     u2860:	
  6189  0441                     l2513:	
  6190  0441  3000               	movlw	0
  6191  0442  00C1               	movwf	___fldiv@b+3
  6192  0443  3000               	movlw	0
  6193  0444  00C0               	movwf	___fldiv@b+2
  6194  0445  3000               	movlw	0
  6195  0446  00BF               	movwf	___fldiv@b+1
  6196  0447  3000               	movlw	0
  6197  0448  00BE               	movwf	___fldiv@b
  6198  0449  3080               	movlw	128
  6199  044A  04C0               	iorwf	___fldiv@b+2,f
  6200  044B  307F               	movlw	127
  6201  044C  04C1               	iorwf	___fldiv@b+3,f
  6202  044D                     l2515:	
  6203  044D  084B               	movf	___fldiv@sign,w
  6204  044E  00C2               	movwf	??___fldiv
  6205  044F  0842               	movf	??___fldiv,w
  6206  0450  04C1               	iorwf	___fldiv@b+3,f
  6207  0451                     l2517:	
  6208  0451  0841               	movf	___fldiv@b+3,w
  6209  0452  00BD               	movwf	?___fldiv+3
  6210  0453  0840               	movf	___fldiv@b+2,w
  6211  0454  00BC               	movwf	?___fldiv+2
  6212  0455  083F               	movf	___fldiv@b+1,w
  6213  0456  00BB               	movwf	?___fldiv+1
  6214  0457  083E               	movf	___fldiv@b,w
  6215  0458  00BA               	movwf	?___fldiv
  6216  0459  2D95               	goto	l690
  6217  045A                     l2521:	
  6218  045A  0852               	movf	___fldiv@bexp,w
  6219  045B  1D03               	btfss	3,2
  6220  045C  2C5E               	goto	u2871
  6221  045D  2C5F               	goto	u2870
  6222  045E                     u2871:	
  6223  045E  2C68               	goto	l2527
  6224  045F                     u2870:	
  6225  045F                     l2523:	
  6226  045F  3000               	movlw	0
  6227  0460  00BD               	movwf	?___fldiv+3
  6228  0461  3000               	movlw	0
  6229  0462  00BC               	movwf	?___fldiv+2
  6230  0463  3000               	movlw	0
  6231  0464  00BB               	movwf	?___fldiv+1
  6232  0465  3000               	movlw	0
  6233  0466  00BA               	movwf	?___fldiv
  6234  0467  2D95               	goto	l690
  6235  0468                     l2527:	
  6236  0468  0852               	movf	___fldiv@bexp,w
  6237  0469  00C2               	movwf	??___fldiv
  6238  046A  01C3               	clrf	??___fldiv+1
  6239  046B  0843               	movf	??___fldiv+1,w
  6240  046C  00C5               	movwf	??___fldiv+3
  6241  046D  0853               	movf	___fldiv@aexp,w
  6242  046E  0242               	subwf	??___fldiv,w
  6243  046F  00C4               	movwf	??___fldiv+2
  6244  0470  1C03               	skipc
  6245  0471  03C5               	decf	??___fldiv+3,f
  6246  0472  0844               	movf	??___fldiv+2,w
  6247  0473  3E7F               	addlw	127
  6248  0474  00CC               	movwf	___fldiv@new_exp
  6249  0475  3000               	movlw	0
  6250  0476  3D45               	addwfc	??___fldiv+3,w
  6251  0477  00CD               	movwf	___fldiv@new_exp+1
  6252  0478                     l2529:	
  6253  0478  0841               	movf	___fldiv@b+3,w
  6254  0479  00CA               	movwf	___fldiv@rem+3
  6255  047A  0840               	movf	___fldiv@b+2,w
  6256  047B  00C9               	movwf	___fldiv@rem+2
  6257  047C  083F               	movf	___fldiv@b+1,w
  6258  047D  00C8               	movwf	___fldiv@rem+1
  6259  047E  083E               	movf	___fldiv@b,w
  6260  047F  00C7               	movwf	___fldiv@rem
  6261  0480                     l2531:	
  6262  0480  3000               	movlw	0
  6263  0481  00C1               	movwf	___fldiv@b+3
  6264  0482  3000               	movlw	0
  6265  0483  00C0               	movwf	___fldiv@b+2
  6266  0484  3000               	movlw	0
  6267  0485  00BF               	movwf	___fldiv@b+1
  6268  0486  3000               	movlw	0
  6269  0487  00BE               	movwf	___fldiv@b
  6270  0488                     l2533:	
  6271  0488  3000               	movlw	0
  6272  0489  00D1               	movwf	___fldiv@grs+3
  6273  048A  3000               	movlw	0
  6274  048B  00D0               	movwf	___fldiv@grs+2
  6275  048C  3000               	movlw	0
  6276  048D  00CF               	movwf	___fldiv@grs+1
  6277  048E  3000               	movlw	0
  6278  048F  00CE               	movwf	___fldiv@grs
  6279  0490                     l2535:	
  6280  0490  01D3               	clrf	___fldiv@aexp
  6281  0491  2CD0               	goto	l2555
  6282  0492                     l2537:	
  6283  0492  0853               	movf	___fldiv@aexp,w
  6284  0493  1903               	btfsc	3,2
  6285  0494  2C96               	goto	u2881
  6286  0495  2C97               	goto	u2880
  6287  0496                     u2881:	
  6288  0496  2CB1               	goto	l2547
  6289  0497                     u2880:	
  6290  0497                     l2539:	
  6291  0497  3001               	movlw	1
  6292  0498                     u2895:	
  6293  0498  35C7               	lslf	___fldiv@rem,f
  6294  0499  0DC8               	rlf	___fldiv@rem+1,f
  6295  049A  0DC9               	rlf	___fldiv@rem+2,f
  6296  049B  0DCA               	rlf	___fldiv@rem+3,f
  6297  049C  0B89               	decfsz	9,f
  6298  049D  2C98               	goto	u2895
  6299  049E  3001               	movlw	1
  6300  049F                     u2905:	
  6301  049F  35BE               	lslf	___fldiv@b,f
  6302  04A0  0DBF               	rlf	___fldiv@b+1,f
  6303  04A1  0DC0               	rlf	___fldiv@b+2,f
  6304  04A2  0DC1               	rlf	___fldiv@b+3,f
  6305  04A3  0B89               	decfsz	9,f
  6306  04A4  2C9F               	goto	u2905
  6307  04A5                     l2541:	
  6308  04A5  1FD1               	btfss	___fldiv@grs+3,7
  6309  04A6  2CA8               	goto	u2911
  6310  04A7  2CA9               	goto	u2910
  6311  04A8                     u2911:	
  6312  04A8  2CAA               	goto	l2545
  6313  04A9                     u2910:	
  6314  04A9                     l2543:	
  6315  04A9  143E               	bsf	___fldiv@b,0
  6316  04AA                     l2545:	
  6317  04AA  3001               	movlw	1
  6318  04AB                     u2925:	
  6319  04AB  35CE               	lslf	___fldiv@grs,f
  6320  04AC  0DCF               	rlf	___fldiv@grs+1,f
  6321  04AD  0DD0               	rlf	___fldiv@grs+2,f
  6322  04AE  0DD1               	rlf	___fldiv@grs+3,f
  6323  04AF  0B89               	decfsz	9,f
  6324  04B0  2CAB               	goto	u2925
  6325  04B1                     l2547:	
  6326  04B1  083D               	movf	___fldiv@a+3,w
  6327  04B2  024A               	subwf	___fldiv@rem+3,w
  6328  04B3  1D03               	skipz
  6329  04B4  2CBF               	goto	u2935
  6330  04B5  083C               	movf	___fldiv@a+2,w
  6331  04B6  0249               	subwf	___fldiv@rem+2,w
  6332  04B7  1D03               	skipz
  6333  04B8  2CBF               	goto	u2935
  6334  04B9  083B               	movf	___fldiv@a+1,w
  6335  04BA  0248               	subwf	___fldiv@rem+1,w
  6336  04BB  1D03               	skipz
  6337  04BC  2CBF               	goto	u2935
  6338  04BD  083A               	movf	___fldiv@a,w
  6339  04BE  0247               	subwf	___fldiv@rem,w
  6340  04BF                     u2935:	
  6341  04BF  1C03               	skipc
  6342  04C0  2CC2               	goto	u2931
  6343  04C1  2CC3               	goto	u2930
  6344  04C2                     u2931:	
  6345  04C2  2CCC               	goto	l2553
  6346  04C3                     u2930:	
  6347  04C3                     l2549:	
  6348  04C3  1751               	bsf	___fldiv@grs+3,6
  6349  04C4                     l2551:	
  6350  04C4  083A               	movf	___fldiv@a,w
  6351  04C5  02C7               	subwf	___fldiv@rem,f
  6352  04C6  083B               	movf	___fldiv@a+1,w
  6353  04C7  3BC8               	subwfb	___fldiv@rem+1,f
  6354  04C8  083C               	movf	___fldiv@a+2,w
  6355  04C9  3BC9               	subwfb	___fldiv@rem+2,f
  6356  04CA  083D               	movf	___fldiv@a+3,w
  6357  04CB  3BCA               	subwfb	___fldiv@rem+3,f
  6358  04CC                     l2553:	
  6359  04CC  3001               	movlw	1
  6360  04CD  00C2               	movwf	??___fldiv
  6361  04CE  0842               	movf	??___fldiv,w
  6362  04CF  07D3               	addwf	___fldiv@aexp,f
  6363  04D0                     l2555:	
  6364  04D0  301A               	movlw	26
  6365  04D1  0253               	subwf	___fldiv@aexp,w
  6366  04D2  1C03               	skipc
  6367  04D3  2CD5               	goto	u2941
  6368  04D4  2CD6               	goto	u2940
  6369  04D5                     u2941:	
  6370  04D5  2C92               	goto	l2537
  6371  04D6                     u2940:	
  6372  04D6                     l2557:	
  6373  04D6  084A               	movf	___fldiv@rem+3,w
  6374  04D7  0449               	iorwf	___fldiv@rem+2,w
  6375  04D8  0448               	iorwf	___fldiv@rem+1,w
  6376  04D9  0447               	iorwf	___fldiv@rem,w
  6377  04DA  1903               	skipnz
  6378  04DB  2CDD               	goto	u2951
  6379  04DC  2CDE               	goto	u2950
  6380  04DD                     u2951:	
  6381  04DD  2CF7               	goto	l2571
  6382  04DE                     u2950:	
  6383  04DE                     l2559:	
  6384  04DE  144E               	bsf	___fldiv@grs,0
  6385  04DF  2CF7               	goto	l2571
  6386  04E0                     l2561:	
  6387  04E0  3001               	movlw	1
  6388  04E1                     u2965:	
  6389  04E1  35BE               	lslf	___fldiv@b,f
  6390  04E2  0DBF               	rlf	___fldiv@b+1,f
  6391  04E3  0DC0               	rlf	___fldiv@b+2,f
  6392  04E4  0DC1               	rlf	___fldiv@b+3,f
  6393  04E5  0B89               	decfsz	9,f
  6394  04E6  2CE1               	goto	u2965
  6395  04E7                     l2563:	
  6396  04E7  1FD1               	btfss	___fldiv@grs+3,7
  6397  04E8  2CEA               	goto	u2971
  6398  04E9  2CEB               	goto	u2970
  6399  04EA                     u2971:	
  6400  04EA  2CEC               	goto	l2567
  6401  04EB                     u2970:	
  6402  04EB                     l2565:	
  6403  04EB  143E               	bsf	___fldiv@b,0
  6404  04EC                     l2567:	
  6405  04EC  3001               	movlw	1
  6406  04ED                     u2985:	
  6407  04ED  35CE               	lslf	___fldiv@grs,f
  6408  04EE  0DCF               	rlf	___fldiv@grs+1,f
  6409  04EF  0DD0               	rlf	___fldiv@grs+2,f
  6410  04F0  0DD1               	rlf	___fldiv@grs+3,f
  6411  04F1  0B89               	decfsz	9,f
  6412  04F2  2CED               	goto	u2985
  6413  04F3                     l2569:	
  6414  04F3  30FF               	movlw	255
  6415  04F4  07CC               	addwf	___fldiv@new_exp,f
  6416  04F5  30FF               	movlw	255
  6417  04F6  3DCD               	addwfc	___fldiv@new_exp+1,f
  6418  04F7                     l2571:	
  6419  04F7  1FC0               	btfss	___fldiv@b+2,7
  6420  04F8  2CFA               	goto	u2991
  6421  04F9  2CFB               	goto	u2990
  6422  04FA                     u2991:	
  6423  04FA  2CE0               	goto	l2561
  6424  04FB                     u2990:	
  6425  04FB                     l2573:	
  6426  04FB  01D3               	clrf	___fldiv@aexp
  6427  04FC                     l2575:	
  6428  04FC  1FD1               	btfss	___fldiv@grs+3,7
  6429  04FD  2CFF               	goto	u3001
  6430  04FE  2D00               	goto	u3000
  6431  04FF                     u3001:	
  6432  04FF  2D1C               	goto	l2583
  6433  0500                     u3000:	
  6434  0500                     l2577:	
  6435  0500  30FF               	movlw	255
  6436  0501  054E               	andwf	___fldiv@grs,w
  6437  0502  00C2               	movwf	??___fldiv
  6438  0503  30FF               	movlw	255
  6439  0504  054F               	andwf	___fldiv@grs+1,w
  6440  0505  00C3               	movwf	??___fldiv+1
  6441  0506  30FF               	movlw	255
  6442  0507  0550               	andwf	___fldiv@grs+2,w
  6443  0508  00C4               	movwf	??___fldiv+2
  6444  0509  307F               	movlw	127
  6445  050A  0551               	andwf	___fldiv@grs+3,w
  6446  050B  00C5               	movwf	??___fldiv+3
  6447  050C  0845               	movf	??___fldiv+3,w
  6448  050D  0444               	iorwf	??___fldiv+2,w
  6449  050E  0443               	iorwf	??___fldiv+1,w
  6450  050F  0442               	iorwf	??___fldiv,w
  6451  0510  1903               	skipnz
  6452  0511  2D13               	goto	u3011
  6453  0512  2D14               	goto	u3010
  6454  0513                     u3011:	
  6455  0513  2D17               	goto	l704
  6456  0514                     u3010:	
  6457  0514                     l2579:	
  6458  0514  01D3               	clrf	___fldiv@aexp
  6459  0515  0AD3               	incf	___fldiv@aexp,f
  6460  0516  2D1C               	goto	l2583
  6461  0517                     l704:	
  6462  0517  1C3E               	btfss	___fldiv@b,0
  6463  0518  2D1A               	goto	u3021
  6464  0519  2D1B               	goto	u3020
  6465  051A                     u3021:	
  6466  051A  2D1C               	goto	l2583
  6467  051B                     u3020:	
  6468  051B  2D14               	goto	l2579
  6469  051C                     l2583:	
  6470  051C  0853               	movf	___fldiv@aexp,w
  6471  051D  1903               	btfsc	3,2
  6472  051E  2D20               	goto	u3031
  6473  051F  2D21               	goto	u3030
  6474  0520                     u3031:	
  6475  0520  2D49               	goto	l2593
  6476  0521                     u3030:	
  6477  0521                     l2585:	
  6478  0521  3001               	movlw	1
  6479  0522  07BE               	addwf	___fldiv@b,f
  6480  0523  3000               	movlw	0
  6481  0524  3DBF               	addwfc	___fldiv@b+1,f
  6482  0525  3000               	movlw	0
  6483  0526  3DC0               	addwfc	___fldiv@b+2,f
  6484  0527  3000               	movlw	0
  6485  0528  3DC1               	addwfc	___fldiv@b+3,f
  6486  0529                     l2587:	
  6487  0529  1C41               	btfss	___fldiv@b+3,0
  6488  052A  2D2C               	goto	u3041
  6489  052B  2D2D               	goto	u3040
  6490  052C                     u3041:	
  6491  052C  2D49               	goto	l2593
  6492  052D                     u3040:	
  6493  052D                     l2589:	
  6494  052D  083E               	movf	___fldiv@b,w
  6495  052E  00C2               	movwf	??___fldiv
  6496  052F  083F               	movf	___fldiv@b+1,w
  6497  0530  00C3               	movwf	??___fldiv+1
  6498  0531  0840               	movf	___fldiv@b+2,w
  6499  0532  00C4               	movwf	??___fldiv+2
  6500  0533  0841               	movf	___fldiv@b+3,w
  6501  0534  00C5               	movwf	??___fldiv+3
  6502  0535  3001               	movlw	1
  6503  0536  00C6               	movwf	??___fldiv+4
  6504  0537                     u3055:	
  6505  0537  37C5               	asrf	??___fldiv+3,f
  6506  0538  0CC4               	rrf	??___fldiv+2,f
  6507  0539  0CC3               	rrf	??___fldiv+1,f
  6508  053A  0CC2               	rrf	??___fldiv,f
  6509  053B                     u3050:	
  6510  053B  0BC6               	decfsz	??___fldiv+4,f
  6511  053C  2D37               	goto	u3055
  6512  053D  0845               	movf	??___fldiv+3,w
  6513  053E  00C1               	movwf	___fldiv@b+3
  6514  053F  0844               	movf	??___fldiv+2,w
  6515  0540  00C0               	movwf	___fldiv@b+2
  6516  0541  0843               	movf	??___fldiv+1,w
  6517  0542  00BF               	movwf	___fldiv@b+1
  6518  0543  0842               	movf	??___fldiv,w
  6519  0544  00BE               	movwf	___fldiv@b
  6520  0545                     l2591:	
  6521  0545  3001               	movlw	1
  6522  0546  07CC               	addwf	___fldiv@new_exp,f
  6523  0547  3000               	movlw	0
  6524  0548  3DCD               	addwfc	___fldiv@new_exp+1,f
  6525  0549                     l2593:	
  6526  0549  084D               	movf	___fldiv@new_exp+1,w
  6527  054A  3A80               	xorlw	128
  6528  054B  00C2               	movwf	??___fldiv
  6529  054C  3080               	movlw	128
  6530  054D  0242               	subwf	??___fldiv,w
  6531  054E  1D03               	skipz
  6532  054F  2D52               	goto	u3065
  6533  0550  30FF               	movlw	255
  6534  0551  024C               	subwf	___fldiv@new_exp,w
  6535  0552                     u3065:	
  6536  0552  1C03               	skipc
  6537  0553  2D55               	goto	u3061
  6538  0554  2D56               	goto	u3060
  6539  0555                     u3061:	
  6540  0555  2D63               	goto	l709
  6541  0556                     u3060:	
  6542  0556                     l2595:	
  6543  0556  30FF               	movlw	255
  6544  0557  0020               	movlb	0	; select bank0
  6545  0558  00CC               	movwf	___fldiv@new_exp
  6546  0559  3000               	movlw	0
  6547  055A  00CD               	movwf	___fldiv@new_exp+1
  6548  055B  3000               	movlw	0
  6549  055C  00C1               	movwf	___fldiv@b+3
  6550  055D  3000               	movlw	0
  6551  055E  00C0               	movwf	___fldiv@b+2
  6552  055F  3000               	movlw	0
  6553  0560  00BF               	movwf	___fldiv@b+1
  6554  0561  3000               	movlw	0
  6555  0562  00BE               	movwf	___fldiv@b
  6556  0563                     l709:	
  6557  0563  0020               	movlb	0	; select bank0
  6558  0564  084D               	movf	___fldiv@new_exp+1,w
  6559  0565  3A80               	xorlw	128
  6560  0566  00C2               	movwf	??___fldiv
  6561  0567  3080               	movlw	128
  6562  0568  0242               	subwf	??___fldiv,w
  6563  0569  1D03               	skipz
  6564  056A  2D6D               	goto	u3075
  6565  056B  3001               	movlw	1
  6566  056C  024C               	subwf	___fldiv@new_exp,w
  6567  056D                     u3075:	
  6568  056D  1803               	skipnc
  6569  056E  2D70               	goto	u3071
  6570  056F  2D71               	goto	u3070
  6571  0570                     u3071:	
  6572  0570  2D7D               	goto	l710
  6573  0571                     u3070:	
  6574  0571                     l2597:	
  6575  0571  0020               	movlb	0	; select bank0
  6576  0572  01CC               	clrf	___fldiv@new_exp
  6577  0573  01CD               	clrf	___fldiv@new_exp+1
  6578  0574                     l2599:	
  6579  0574  3000               	movlw	0
  6580  0575  00C1               	movwf	___fldiv@b+3
  6581  0576  3000               	movlw	0
  6582  0577  00C0               	movwf	___fldiv@b+2
  6583  0578  3000               	movlw	0
  6584  0579  00BF               	movwf	___fldiv@b+1
  6585  057A  3000               	movlw	0
  6586  057B  00BE               	movwf	___fldiv@b
  6587  057C                     l2601:	
  6588  057C  01CB               	clrf	___fldiv@sign
  6589  057D                     l710:	
  6590  057D  0020               	movlb	0	; select bank0
  6591  057E  084C               	movf	___fldiv@new_exp,w
  6592  057F  00C2               	movwf	??___fldiv
  6593  0580  0842               	movf	??___fldiv,w
  6594  0581  00D2               	movwf	___fldiv@bexp
  6595  0582                     l2603:	
  6596  0582  1C52               	btfss	___fldiv@bexp,0
  6597  0583  2D85               	goto	u3081
  6598  0584  2D86               	goto	u3080
  6599  0585                     u3081:	
  6600  0585  2D88               	goto	l2607
  6601  0586                     u3080:	
  6602  0586                     l2605:	
  6603  0586  17C0               	bsf	___fldiv@b+2,7
  6604  0587  2D8C               	goto	l712
  6605  0588                     l2607:	
  6606  0588  307F               	movlw	127
  6607  0589  00C2               	movwf	??___fldiv
  6608  058A  0842               	movf	??___fldiv,w
  6609  058B  05C0               	andwf	___fldiv@b+2,f
  6610  058C                     l712:	
  6611  058C  3652               	lsrf	___fldiv@bexp,w
  6612  058D  00C2               	movwf	??___fldiv
  6613  058E  0842               	movf	??___fldiv,w
  6614  058F  00C1               	movwf	___fldiv@b+3
  6615  0590  084B               	movf	___fldiv@sign,w
  6616  0591  00C2               	movwf	??___fldiv
  6617  0592  0842               	movf	??___fldiv,w
  6618  0593  04C1               	iorwf	___fldiv@b+3,f
  6619  0594  2C51               	goto	l2517
  6620  0595                     l690:	
  6621  0595  0008               	return
  6622  0596                     __end_of___fldiv:	
  6623                           
  6624                           	psect	text22
  6625  08B0                     __ptext22:	
  6626 ;; *************** function _Lcd_Out2 *****************
  6627 ;; Defined at:
  6628 ;;		line 115 in file "./flex_lcd.h"
  6629 ;; Parameters:    Size  Location     Type
  6630 ;;  y               1    wreg     unsigned char 
  6631 ;;  x               1    3[COMMON] unsigned char 
  6632 ;;  buffer          1    4[COMMON] PTR unsigned char 
  6633 ;;		 -> main@buffer1(16), 
  6634 ;; Auto vars:     Size  Location     Type
  6635 ;;  y               1    7[COMMON] unsigned char 
  6636 ;;  data            1    8[COMMON] unsigned char 
  6637 ;; Return value:  Size  Location     Type
  6638 ;;                  1    wreg      void 
  6639 ;; Registers used:
  6640 ;;		wreg, fsr0l, fsr0h, fsr1l, fsr1h, status,2, status,0, pclath, cstack
  6641 ;; Tracked objects:
  6642 ;;		On entry : 0/0
  6643 ;;		On exit  : 0/0
  6644 ;;		Unchanged: 0/0
  6645 ;; Data sizes:     COMMON   BANK0   BANK1   BANK2   BANK3   BANK4   BANK5   BANK6   BANK7   BANK8   BANK9  BANK10  BANK1
      +1  BANK12
  6646 ;;      Params:         2       0       0       0       0       0       0       0       0       0       0       0       
      +0       0
  6647 ;;      Locals:         2       0       0       0       0       0       0       0       0       0       0       0       
      +0       0
  6648 ;;      Temps:          2       0       0       0       0       0       0       0       0       0       0       0       
      +0       0
  6649 ;;      Totals:         6       0       0       0       0       0       0       0       0       0       0       0       
      +0       0
  6650 ;;Total ram usage:        6 bytes
  6651 ;; Hardware stack levels used:    1
  6652 ;; Hardware stack levels required when called:    1
  6653 ;; This function calls:
  6654 ;;		_Lcd_Chr_CP
  6655 ;;		_Lcd_Cmd
  6656 ;; This function is called by:
  6657 ;;		_main
  6658 ;; This function uses a non-reentrant model
  6659 ;;
  6660                           
  6661                           
  6662                           ;psect for function _Lcd_Out2
  6663  08B0                     _Lcd_Out2:	
  6664                           
  6665                           ;incstack = 0
  6666                           ; Regs used in _Lcd_Out2: [wreg-fsr1h+status,2+status,0+pclath+cstack]
  6667                           ;Lcd_Out2@y stored from wreg
  6668  08B0  00F7               	movwf	Lcd_Out2@y
  6669  08B1                     l2399:	
  6670                           
  6671                           ;./flex_lcd.h: 115: void Lcd_Out2(unsigned char y, unsigned char x, char *buffer);./flex
      +                          _lcd.h: 116: {;./flex_lcd.h: 117: unsigned char data;;./flex_lcd.h: 118: switch (y)
  6672  08B1  28CA               	goto	l2411
  6673  08B2                     l2401:	
  6674  08B2  0873               	movf	Lcd_Out2@x,w
  6675  08B3  3E80               	addlw	128
  6676  08B4  00F5               	movwf	??_Lcd_Out2
  6677  08B5  0875               	movf	??_Lcd_Out2,w
  6678  08B6  00F8               	movwf	Lcd_Out2@data
  6679  08B7  28E0               	goto	l2413
  6680  08B8                     l2403:	
  6681  08B8  0873               	movf	Lcd_Out2@x,w
  6682  08B9  3EC0               	addlw	192
  6683  08BA  00F5               	movwf	??_Lcd_Out2
  6684  08BB  0875               	movf	??_Lcd_Out2,w
  6685  08BC  00F8               	movwf	Lcd_Out2@data
  6686  08BD  28E0               	goto	l2413
  6687  08BE                     l2405:	
  6688  08BE  0873               	movf	Lcd_Out2@x,w
  6689  08BF  3E94               	addlw	148
  6690  08C0  00F5               	movwf	??_Lcd_Out2
  6691  08C1  0875               	movf	??_Lcd_Out2,w
  6692  08C2  00F8               	movwf	Lcd_Out2@data
  6693  08C3  28E0               	goto	l2413
  6694  08C4                     l2407:	
  6695  08C4  0873               	movf	Lcd_Out2@x,w
  6696  08C5  3ED4               	addlw	212
  6697  08C6  00F5               	movwf	??_Lcd_Out2
  6698  08C7  0875               	movf	??_Lcd_Out2,w
  6699  08C8  00F8               	movwf	Lcd_Out2@data
  6700  08C9  28E0               	goto	l2413
  6701  08CA                     l2411:	
  6702  08CA  0877               	movf	Lcd_Out2@y,w
  6703  08CB  00F5               	movwf	??_Lcd_Out2
  6704  08CC  01F6               	clrf	??_Lcd_Out2+1
  6705                           
  6706                           ; Switch on 2 bytes has been partitioned into a top level switch of size 1, and 1 sub-sw
      +                          itches
  6707                           ; Switch size 1, requested type "simple"
  6708                           ; Number of cases is 1, Range of values is 0 to 0
  6709                           ; switch strategies available:
  6710                           ; Name         Instructions Cycles
  6711                           ; simple_byte            4     3 (average)
  6712                           ; direct_byte            8     6 (fixed)
  6713                           ; jumptable            260     6 (fixed)
  6714                           ;	Chosen strategy is simple_byte
  6715  08CD  0876               	movf	??_Lcd_Out2+1,w
  6716  08CE  3A00               	xorlw	0	; case 0
  6717  08CF  1903               	skipnz
  6718  08D0  28D2               	goto	l2961
  6719  08D1  28E0               	goto	l2413
  6720  08D2                     l2961:	
  6721                           
  6722                           ; Switch size 1, requested type "simple"
  6723                           ; Number of cases is 4, Range of values is 1 to 4
  6724                           ; switch strategies available:
  6725                           ; Name         Instructions Cycles
  6726                           ; simple_byte           13     7 (average)
  6727                           ; direct_byte           17     9 (fixed)
  6728                           ; jumptable            263     9 (fixed)
  6729                           ;	Chosen strategy is simple_byte
  6730  08D2  0875               	movf	??_Lcd_Out2,w
  6731  08D3  3A01               	xorlw	1	; case 1
  6732  08D4  1903               	skipnz
  6733  08D5  28B2               	goto	l2401
  6734  08D6  3A03               	xorlw	3	; case 2
  6735  08D7  1903               	skipnz
  6736  08D8  28B8               	goto	l2403
  6737  08D9  3A01               	xorlw	1	; case 3
  6738  08DA  1903               	skipnz
  6739  08DB  28BE               	goto	l2405
  6740  08DC  3A07               	xorlw	7	; case 4
  6741  08DD  1903               	skipnz
  6742  08DE  28C4               	goto	l2407
  6743  08DF  28E0               	goto	l2413
  6744  08E0                     l2413:	
  6745                           
  6746                           ;./flex_lcd.h: 126: Lcd_Cmd(data);
  6747  08E0  0878               	movf	Lcd_Out2@data,w
  6748  08E1  318A  2216  3188   	fcall	_Lcd_Cmd
  6749                           
  6750                           ;./flex_lcd.h: 127: while(*buffer)
  6751  08E4  28F0               	goto	l2419
  6752  08E5                     l2415:	
  6753                           
  6754                           ;./flex_lcd.h: 128: {;./flex_lcd.h: 129:     Lcd_Chr_CP(*buffer);
  6755  08E5  0874               	movf	Lcd_Out2@buffer,w
  6756  08E6  0086               	movwf	6
  6757  08E7  0187               	clrf	7
  6758  08E8  0801               	movf	1,w
  6759  08E9  3180  2009  3188   	fcall	_Lcd_Chr_CP
  6760  08EC                     l2417:	
  6761                           
  6762                           ;./flex_lcd.h: 130:     buffer++;
  6763  08EC  3001               	movlw	1
  6764  08ED  00F5               	movwf	??_Lcd_Out2
  6765  08EE  0875               	movf	??_Lcd_Out2,w
  6766  08EF  07F4               	addwf	Lcd_Out2@buffer,f
  6767  08F0                     l2419:	
  6768                           
  6769                           ;./flex_lcd.h: 127: while(*buffer)
  6770  08F0  0874               	movf	Lcd_Out2@buffer,w
  6771  08F1  0086               	movwf	6
  6772  08F2  0187               	clrf	7
  6773  08F3  0801               	movf	1,w
  6774  08F4  1D03               	btfss	3,2
  6775  08F5  28F7               	goto	u2691
  6776  08F6  28F8               	goto	u2690
  6777  08F7                     u2691:	
  6778  08F7  28E5               	goto	l2415
  6779  08F8                     u2690:	
  6780  08F8                     l59:	
  6781  08F8  0008               	return
  6782  08F9                     __end_of_Lcd_Out2:	
  6783                           
  6784                           	psect	text23
  6785  0009                     __ptext23:	
  6786 ;; *************** function _Lcd_Chr_CP *****************
  6787 ;; Defined at:
  6788 ;;		line 136 in file "./flex_lcd.h"
  6789 ;; Parameters:    Size  Location     Type
  6790 ;;  data            1    wreg     unsigned char 
  6791 ;; Auto vars:     Size  Location     Type
  6792 ;;  data            1    2[COMMON] unsigned char 
  6793 ;; Return value:  Size  Location     Type
  6794 ;;                  1    wreg      void 
  6795 ;; Registers used:
  6796 ;;		wreg, status,2, status,0
  6797 ;; Tracked objects:
  6798 ;;		On entry : 0/0
  6799 ;;		On exit  : 0/0
  6800 ;;		Unchanged: 0/0
  6801 ;; Data sizes:     COMMON   BANK0   BANK1   BANK2   BANK3   BANK4   BANK5   BANK6   BANK7   BANK8   BANK9  BANK10  BANK1
      +1  BANK12
  6802 ;;      Params:         0       0       0       0       0       0       0       0       0       0       0       0       
      +0       0
  6803 ;;      Locals:         1       0       0       0       0       0       0       0       0       0       0       0       
      +0       0
  6804 ;;      Temps:          2       0       0       0       0       0       0       0       0       0       0       0       
      +0       0
  6805 ;;      Totals:         3       0       0       0       0       0       0       0       0       0       0       0       
      +0       0
  6806 ;;Total ram usage:        3 bytes
  6807 ;; Hardware stack levels used:    1
  6808 ;; This function calls:
  6809 ;;		Nothing
  6810 ;; This function is called by:
  6811 ;;		_Lcd_Out2
  6812 ;;		_Lcd_Out
  6813 ;; This function uses a non-reentrant model
  6814 ;;
  6815                           
  6816                           
  6817                           ;psect for function _Lcd_Chr_CP
  6818  0009                     _Lcd_Chr_CP:	
  6819                           
  6820                           ;incstack = 0
  6821                           ; Regs used in _Lcd_Chr_CP: [wreg+status,2+status,0]
  6822                           ;Lcd_Chr_CP@data stored from wreg
  6823  0009  00F2               	movwf	Lcd_Chr_CP@data
  6824  000A                     l2299:	
  6825                           
  6826                           ;./flex_lcd.h: 137: PORTCbits.RC1 = 0; PORTCbits.RC0 = 1;
  6827  000A  0020               	movlb	0	; select bank0
  6828  000B  108E               	bcf	14,1	;volatile
  6829  000C  140E               	bsf	14,0	;volatile
  6830  000D                     l2301:	
  6831                           
  6832                           ;./flex_lcd.h: 138: PORTCbits.RC5 = (data & 0b10000000)>>7; PORTCbits.RC4 = (data & 0b01
      +                          000000)>>6;
  6833  000D  0872               	movf	Lcd_Chr_CP@data,w
  6834  000E  00F0               	movwf	??_Lcd_Chr_CP
  6835  000F  3007               	movlw	7
  6836  0010                     u2585:	
  6837  0010  36F0               	lsrf	??_Lcd_Chr_CP,f
  6838  0011  0B89               	decfsz	9,f
  6839  0012  2810               	goto	u2585
  6840  0013  0870               	movf	??_Lcd_Chr_CP,w
  6841  0014  3901               	andlw	1
  6842  0015  00F1               	movwf	??_Lcd_Chr_CP+1
  6843  0016  0EF1               	swapf	??_Lcd_Chr_CP+1,f
  6844  0017  0DF1               	rlf	??_Lcd_Chr_CP+1,f
  6845  0018  080E               	movf	14,w	;volatile
  6846  0019  0671               	xorwf	??_Lcd_Chr_CP+1,w
  6847  001A  39DF               	andlw	-33
  6848  001B  0671               	xorwf	??_Lcd_Chr_CP+1,w
  6849  001C  008E               	movwf	14	;volatile
  6850  001D  0872               	movf	Lcd_Chr_CP@data,w
  6851  001E  00F0               	movwf	??_Lcd_Chr_CP
  6852  001F  3006               	movlw	6
  6853  0020                     u2595:	
  6854  0020  36F0               	lsrf	??_Lcd_Chr_CP,f
  6855  0021  0B89               	decfsz	9,f
  6856  0022  2820               	goto	u2595
  6857  0023  0870               	movf	??_Lcd_Chr_CP,w
  6858  0024  3901               	andlw	1
  6859  0025  00F1               	movwf	??_Lcd_Chr_CP+1
  6860  0026  0EF1               	swapf	??_Lcd_Chr_CP+1,f
  6861  0027  080E               	movf	14,w	;volatile
  6862  0028  0671               	xorwf	??_Lcd_Chr_CP+1,w
  6863  0029  39EF               	andlw	-17
  6864  002A  0671               	xorwf	??_Lcd_Chr_CP+1,w
  6865  002B  008E               	movwf	14	;volatile
  6866                           
  6867                           ;./flex_lcd.h: 139: PORTCbits.RC3 = (data & 0b00100000)>>5; PORTCbits.RC2 = (data & 0b00
      +                          010000)>>4;
  6868  002C  0872               	movf	Lcd_Chr_CP@data,w
  6869  002D  00F0               	movwf	??_Lcd_Chr_CP
  6870  002E  3005               	movlw	5
  6871  002F                     u2605:	
  6872  002F  36F0               	lsrf	??_Lcd_Chr_CP,f
  6873  0030  0B89               	decfsz	9,f
  6874  0031  282F               	goto	u2605
  6875  0032  0870               	movf	??_Lcd_Chr_CP,w
  6876  0033  3901               	andlw	1
  6877  0034  00F1               	movwf	??_Lcd_Chr_CP+1
  6878  0035  0DF1               	rlf	??_Lcd_Chr_CP+1,f
  6879  0036  0DF1               	rlf	??_Lcd_Chr_CP+1,f
  6880  0037  0DF1               	rlf	??_Lcd_Chr_CP+1,f
  6881  0038  080E               	movf	14,w	;volatile
  6882  0039  0671               	xorwf	??_Lcd_Chr_CP+1,w
  6883  003A  39F7               	andlw	-9
  6884  003B  0671               	xorwf	??_Lcd_Chr_CP+1,w
  6885  003C  008E               	movwf	14	;volatile
  6886  003D  0872               	movf	Lcd_Chr_CP@data,w
  6887  003E  00F0               	movwf	??_Lcd_Chr_CP
  6888  003F  3004               	movlw	4
  6889  0040                     u2615:	
  6890  0040  36F0               	lsrf	??_Lcd_Chr_CP,f
  6891  0041  0B89               	decfsz	9,f
  6892  0042  2840               	goto	u2615
  6893  0043  0870               	movf	??_Lcd_Chr_CP,w
  6894  0044  3901               	andlw	1
  6895  0045  00F1               	movwf	??_Lcd_Chr_CP+1
  6896  0046  0DF1               	rlf	??_Lcd_Chr_CP+1,f
  6897  0047  0DF1               	rlf	??_Lcd_Chr_CP+1,f
  6898  0048  080E               	movf	14,w	;volatile
  6899  0049  0671               	xorwf	??_Lcd_Chr_CP+1,w
  6900  004A  39FB               	andlw	-5
  6901  004B  0671               	xorwf	??_Lcd_Chr_CP+1,w
  6902  004C  008E               	movwf	14	;volatile
  6903  004D                     l2303:	
  6904                           
  6905                           ;./flex_lcd.h: 140: _delay(10);
  6906  004D  3003               	movlw	3
  6907  004E                     u3577:	
  6908  004E  0B89               	decfsz	9,f
  6909  004F  284E               	goto	u3577
  6910  0050  0000               	nop
  6911  0051                     l2305:	
  6912                           
  6913                           ;./flex_lcd.h: 141: PORTCbits.RC1 = 1; _delay((unsigned long)((5)*(32000000/4000000.0)))
      +                          ; PORTCbits.RC1 = 0;
  6914  0051  0020               	movlb	0	; select bank0
  6915  0052  148E               	bsf	14,1	;volatile
  6916  0053                     l2307:	
  6917  0053  300D               	movlw	13
  6918  0054                     u3587:	
  6919  0054  0B89               	decfsz	9,f
  6920  0055  2854               	goto	u3587
  6921  0056  0000               	nop
  6922  0057                     l2309:	
  6923  0057  0020               	movlb	0	; select bank0
  6924  0058  108E               	bcf	14,1	;volatile
  6925                           
  6926                           ;./flex_lcd.h: 142: PORTCbits.RC5 = (data & 0b00001000)>>3; PORTCbits.RC4 = (data & 0b00
      +                          000100)>>2;
  6927  0059  0872               	movf	Lcd_Chr_CP@data,w
  6928  005A  00F0               	movwf	??_Lcd_Chr_CP
  6929  005B  3003               	movlw	3
  6930  005C                     u2625:	
  6931  005C  36F0               	lsrf	??_Lcd_Chr_CP,f
  6932  005D  0B89               	decfsz	9,f
  6933  005E  285C               	goto	u2625
  6934  005F  0870               	movf	??_Lcd_Chr_CP,w
  6935  0060  3901               	andlw	1
  6936  0061  00F1               	movwf	??_Lcd_Chr_CP+1
  6937  0062  0EF1               	swapf	??_Lcd_Chr_CP+1,f
  6938  0063  0DF1               	rlf	??_Lcd_Chr_CP+1,f
  6939  0064  080E               	movf	14,w	;volatile
  6940  0065  0671               	xorwf	??_Lcd_Chr_CP+1,w
  6941  0066  39DF               	andlw	-33
  6942  0067  0671               	xorwf	??_Lcd_Chr_CP+1,w
  6943  0068  008E               	movwf	14	;volatile
  6944  0069  0872               	movf	Lcd_Chr_CP@data,w
  6945  006A  00F0               	movwf	??_Lcd_Chr_CP
  6946  006B  3002               	movlw	2
  6947  006C                     u2635:	
  6948  006C  36F0               	lsrf	??_Lcd_Chr_CP,f
  6949  006D  0B89               	decfsz	9,f
  6950  006E  286C               	goto	u2635
  6951  006F  0870               	movf	??_Lcd_Chr_CP,w
  6952  0070  3901               	andlw	1
  6953  0071  00F1               	movwf	??_Lcd_Chr_CP+1
  6954  0072  0EF1               	swapf	??_Lcd_Chr_CP+1,f
  6955  0073  080E               	movf	14,w	;volatile
  6956  0074  0671               	xorwf	??_Lcd_Chr_CP+1,w
  6957  0075  39EF               	andlw	-17
  6958  0076  0671               	xorwf	??_Lcd_Chr_CP+1,w
  6959  0077  008E               	movwf	14	;volatile
  6960                           
  6961                           ;./flex_lcd.h: 143: PORTCbits.RC3 = (data & 0b00000010)>>1; PORTCbits.RC2 = (data & 0b00
      +                          000001);
  6962  0078  3672               	lsrf	Lcd_Chr_CP@data,w
  6963  0079  3901               	andlw	1
  6964  007A  00F0               	movwf	??_Lcd_Chr_CP
  6965  007B  0DF0               	rlf	??_Lcd_Chr_CP,f
  6966  007C  0DF0               	rlf	??_Lcd_Chr_CP,f
  6967  007D  0DF0               	rlf	??_Lcd_Chr_CP,f
  6968  007E  080E               	movf	14,w	;volatile
  6969  007F  0670               	xorwf	??_Lcd_Chr_CP,w
  6970  0080  39F7               	andlw	-9
  6971  0081  0670               	xorwf	??_Lcd_Chr_CP,w
  6972  0082  008E               	movwf	14	;volatile
  6973  0083  0872               	movf	Lcd_Chr_CP@data,w
  6974  0084  3901               	andlw	1
  6975  0085  00F0               	movwf	??_Lcd_Chr_CP
  6976  0086  0DF0               	rlf	??_Lcd_Chr_CP,f
  6977  0087  0DF0               	rlf	??_Lcd_Chr_CP,f
  6978  0088  080E               	movf	14,w	;volatile
  6979  0089  0670               	xorwf	??_Lcd_Chr_CP,w
  6980  008A  39FB               	andlw	-5
  6981  008B  0670               	xorwf	??_Lcd_Chr_CP,w
  6982  008C  008E               	movwf	14	;volatile
  6983  008D                     l2311:	
  6984                           
  6985                           ;./flex_lcd.h: 144: _delay(10);
  6986  008D  3003               	movlw	3
  6987  008E                     u3597:	
  6988  008E  0B89               	decfsz	9,f
  6989  008F  288E               	goto	u3597
  6990  0090  0000               	nop
  6991  0091                     l2313:	
  6992                           
  6993                           ;./flex_lcd.h: 145: PORTCbits.RC1 = 1; _delay((unsigned long)((5)*(32000000/4000000.0)))
      +                          ; PORTCbits.RC1 = 0;
  6994  0091  0020               	movlb	0	; select bank0
  6995  0092  148E               	bsf	14,1	;volatile
  6996  0093                     l2315:	
  6997  0093  300D               	movlw	13
  6998  0094                     u3607:	
  6999  0094  0B89               	decfsz	9,f
  7000  0095  2894               	goto	u3607
  7001  0096  0000               	nop
  7002  0097                     l2317:	
  7003  0097  0020               	movlb	0	; select bank0
  7004  0098  108E               	bcf	14,1	;volatile
  7005  0099                     l2319:	
  7006                           
  7007                           ;./flex_lcd.h: 146: _delay((unsigned long)((5)*(32000000/4000000.0))); _delay((unsigned 
      +                          long)((5500)*(32000000/4000000.0)));
  7008  0099  300D               	movlw	13
  7009  009A                     u3617:	
  7010  009A  0B89               	decfsz	9,f
  7011  009B  289A               	goto	u3617
  7012  009C  0000               	nop
  7013  009D                     l2321:	
  7014  009D  303A               	movlw	58
  7015  009E  00F0               	movwf	??_Lcd_Chr_CP
  7016  009F  3023               	movlw	35
  7017  00A0                     u3627:	
  7018  00A0  0B89               	decfsz	9,f
  7019  00A1  28A0               	goto	u3627
  7020  00A2  0BF0               	decfsz	??_Lcd_Chr_CP,f
  7021  00A3  28A0               	goto	u3627
  7022  00A4  0000               	nop
  7023  00A5                     l62:	
  7024  00A5  0008               	return
  7025  00A6                     __end_of_Lcd_Chr_CP:	
  7026                           
  7027                           	psect	text24
  7028  0AAF                     __ptext24:	
  7029 ;; *************** function _Lcd_Init *****************
  7030 ;; Defined at:
  7031 ;;		line 52 in file "./flex_lcd.h"
  7032 ;; Parameters:    Size  Location     Type
  7033 ;;		None
  7034 ;; Auto vars:     Size  Location     Type
  7035 ;;  data            1    4[COMMON] unsigned char 
  7036 ;; Return value:  Size  Location     Type
  7037 ;;                  1    wreg      void 
  7038 ;; Registers used:
  7039 ;;		wreg, status,2, status,0, pclath, cstack
  7040 ;; Tracked objects:
  7041 ;;		On entry : 0/0
  7042 ;;		On exit  : 0/0
  7043 ;;		Unchanged: 0/0
  7044 ;; Data sizes:     COMMON   BANK0   BANK1   BANK2   BANK3   BANK4   BANK5   BANK6   BANK7   BANK8   BANK9  BANK10  BANK1
      +1  BANK12
  7045 ;;      Params:         0       0       0       0       0       0       0       0       0       0       0       0       
      +0       0
  7046 ;;      Locals:         1       0       0       0       0       0       0       0       0       0       0       0       
      +0       0
  7047 ;;      Temps:          1       0       0       0       0       0       0       0       0       0       0       0       
      +0       0
  7048 ;;      Totals:         2       0       0       0       0       0       0       0       0       0       0       0       
      +0       0
  7049 ;;Total ram usage:        2 bytes
  7050 ;; Hardware stack levels used:    1
  7051 ;; Hardware stack levels required when called:    1
  7052 ;; This function calls:
  7053 ;;		_Lcd_Cmd
  7054 ;; This function is called by:
  7055 ;;		_main
  7056 ;; This function uses a non-reentrant model
  7057 ;;
  7058                           
  7059                           
  7060                           ;psect for function _Lcd_Init
  7061  0AAF                     _Lcd_Init:	
  7062  0AAF                     l2349:	
  7063                           ;incstack = 0
  7064                           ; Regs used in _Lcd_Init: [wreg+status,2+status,0+pclath+cstack]
  7065                           
  7066                           
  7067                           ;./flex_lcd.h: 53: unsigned char data;;./flex_lcd.h: 54: TRISCbits.TRISC5 = 0;
  7068  0AAF  0021               	movlb	1	; select bank1
  7069  0AB0  128E               	bcf	14,5	;volatile
  7070                           
  7071                           ;./flex_lcd.h: 55: TRISCbits.TRISC4 = 0;
  7072  0AB1  120E               	bcf	14,4	;volatile
  7073                           
  7074                           ;./flex_lcd.h: 56: TRISCbits.TRISC3 = 0;
  7075  0AB2  118E               	bcf	14,3	;volatile
  7076                           
  7077                           ;./flex_lcd.h: 57: TRISCbits.TRISC2 = 0;
  7078  0AB3  110E               	bcf	14,2	;volatile
  7079                           
  7080                           ;./flex_lcd.h: 58: TRISCbits.TRISC1 = 0;
  7081  0AB4  108E               	bcf	14,1	;volatile
  7082                           
  7083                           ;./flex_lcd.h: 59: TRISCbits.TRISC0 = 0;
  7084  0AB5  100E               	bcf	14,0	;volatile
  7085                           
  7086                           ;./flex_lcd.h: 60: PORTCbits.RC5 = 0;
  7087  0AB6  0020               	movlb	0	; select bank0
  7088  0AB7  128E               	bcf	14,5	;volatile
  7089                           
  7090                           ;./flex_lcd.h: 61: PORTCbits.RC4 = 0;
  7091  0AB8  120E               	bcf	14,4	;volatile
  7092                           
  7093                           ;./flex_lcd.h: 62: PORTCbits.RC3 = 0;
  7094  0AB9  118E               	bcf	14,3	;volatile
  7095                           
  7096                           ;./flex_lcd.h: 63: PORTCbits.RC2 = 0;
  7097  0ABA  110E               	bcf	14,2	;volatile
  7098                           
  7099                           ;./flex_lcd.h: 64: PORTCbits.RC1 = 0;
  7100  0ABB  108E               	bcf	14,1	;volatile
  7101                           
  7102                           ;./flex_lcd.h: 65: PORTCbits.RC0 = 0;
  7103  0ABC  100E               	bcf	14,0	;volatile
  7104  0ABD                     l2351:	
  7105                           
  7106                           ;./flex_lcd.h: 66: _delay((unsigned long)((5500)*(32000000/4000000.0)));
  7107  0ABD  303A               	movlw	58
  7108  0ABE  00F3               	movwf	??_Lcd_Init
  7109  0ABF  3023               	movlw	35
  7110  0AC0                     u3637:	
  7111  0AC0  0B89               	decfsz	9,f
  7112  0AC1  2AC0               	goto	u3637
  7113  0AC2  0BF3               	decfsz	??_Lcd_Init,f
  7114  0AC3  2AC0               	goto	u3637
  7115  0AC4  0000               	nop
  7116                           
  7117                           ;./flex_lcd.h: 67: _delay((unsigned long)((5500)*(32000000/4000000.0)));
  7118  0AC5  303A               	movlw	58
  7119  0AC6  00F3               	movwf	??_Lcd_Init
  7120  0AC7  3023               	movlw	35
  7121  0AC8                     u3647:	
  7122  0AC8  0B89               	decfsz	9,f
  7123  0AC9  2AC8               	goto	u3647
  7124  0ACA  0BF3               	decfsz	??_Lcd_Init,f
  7125  0ACB  2AC8               	goto	u3647
  7126  0ACC  0000               	nop
  7127                           
  7128                           ;./flex_lcd.h: 68: _delay((unsigned long)((5500)*(32000000/4000000.0)));
  7129  0ACD  303A               	movlw	58
  7130  0ACE  00F3               	movwf	??_Lcd_Init
  7131  0ACF  3023               	movlw	35
  7132  0AD0                     u3657:	
  7133  0AD0  0B89               	decfsz	9,f
  7134  0AD1  2AD0               	goto	u3657
  7135  0AD2  0BF3               	decfsz	??_Lcd_Init,f
  7136  0AD3  2AD0               	goto	u3657
  7137  0AD4  0000               	nop
  7138                           
  7139                           ;./flex_lcd.h: 69: _delay((unsigned long)((5500)*(32000000/4000000.0)));
  7140  0AD5  303A               	movlw	58
  7141  0AD6  00F3               	movwf	??_Lcd_Init
  7142  0AD7  3023               	movlw	35
  7143  0AD8                     u3667:	
  7144  0AD8  0B89               	decfsz	9,f
  7145  0AD9  2AD8               	goto	u3667
  7146  0ADA  0BF3               	decfsz	??_Lcd_Init,f
  7147  0ADB  2AD8               	goto	u3667
  7148  0ADC  0000               	nop
  7149                           
  7150                           ;./flex_lcd.h: 70: _delay((unsigned long)((5500)*(32000000/4000000.0)));
  7151  0ADD  303A               	movlw	58
  7152  0ADE  00F3               	movwf	??_Lcd_Init
  7153  0ADF  3023               	movlw	35
  7154  0AE0                     u3677:	
  7155  0AE0  0B89               	decfsz	9,f
  7156  0AE1  2AE0               	goto	u3677
  7157  0AE2  0BF3               	decfsz	??_Lcd_Init,f
  7158  0AE3  2AE0               	goto	u3677
  7159  0AE4  0000               	nop
  7160                           
  7161                           ;./flex_lcd.h: 71: _delay((unsigned long)((5500)*(32000000/4000000.0)));
  7162  0AE5  303A               	movlw	58
  7163  0AE6  00F3               	movwf	??_Lcd_Init
  7164  0AE7  3023               	movlw	35
  7165  0AE8                     u3687:	
  7166  0AE8  0B89               	decfsz	9,f
  7167  0AE9  2AE8               	goto	u3687
  7168  0AEA  0BF3               	decfsz	??_Lcd_Init,f
  7169  0AEB  2AE8               	goto	u3687
  7170  0AEC  0000               	nop
  7171  0AED                     l2353:	
  7172                           
  7173                           ;./flex_lcd.h: 72: for(data = 1; data < 4; data ++)
  7174  0AED  01F4               	clrf	Lcd_Init@data
  7175  0AEE  0AF4               	incf	Lcd_Init@data,f
  7176  0AEF                     l31:	
  7177                           
  7178                           ;./flex_lcd.h: 73: {;./flex_lcd.h: 74:     PORTCbits.RC5 = 0; PORTCbits.RC4 = 0; PORTCbi
      +                          ts.RC3 = 1; PORTCbits.RC2 = 1; PORTCbits.RC1 = 0;
  7179  0AEF  0020               	movlb	0	; select bank0
  7180  0AF0  128E               	bcf	14,5	;volatile
  7181  0AF1  120E               	bcf	14,4	;volatile
  7182  0AF2  158E               	bsf	14,3	;volatile
  7183  0AF3  150E               	bsf	14,2	;volatile
  7184  0AF4  108E               	bcf	14,1	;volatile
  7185                           
  7186                           ;./flex_lcd.h: 75:     PORTCbits.RC0 = 0; PORTCbits.RC5 = 0; PORTCbits.RC4 = 0; PORTCbit
      +                          s.RC3 = 1; PORTCbits.RC2 = 1;
  7187  0AF5  100E               	bcf	14,0	;volatile
  7188  0AF6  128E               	bcf	14,5	;volatile
  7189  0AF7  120E               	bcf	14,4	;volatile
  7190  0AF8  158E               	bsf	14,3	;volatile
  7191  0AF9  150E               	bsf	14,2	;volatile
  7192                           
  7193                           ;./flex_lcd.h: 76:     PORTCbits.RC1 = 1; PORTCbits.RC0 = 0;
  7194  0AFA  148E               	bsf	14,1	;volatile
  7195  0AFB  100E               	bcf	14,0	;volatile
  7196  0AFC                     l2357:	
  7197                           
  7198                           ;./flex_lcd.h: 77:     _delay((unsigned long)((5)*(32000000/4000000.0)));
  7199  0AFC  300D               	movlw	13
  7200  0AFD                     u3697:	
  7201  0AFD  0B89               	decfsz	9,f
  7202  0AFE  2AFD               	goto	u3697
  7203  0AFF  0000               	nop
  7204  0B00                     l2359:	
  7205                           
  7206                           ;./flex_lcd.h: 78:     PORTCbits.RC5 = 0; PORTCbits.RC4 = 0; PORTCbits.RC3 = 1; PORTCbit
      +                          s.RC2 = 1; PORTCbits.RC1 = 0;
  7207  0B00  0020               	movlb	0	; select bank0
  7208  0B01  128E               	bcf	14,5	;volatile
  7209  0B02                     l2361:	
  7210  0B02  120E               	bcf	14,4	;volatile
  7211  0B03                     l2363:	
  7212  0B03  158E               	bsf	14,3	;volatile
  7213  0B04                     l2365:	
  7214  0B04  150E               	bsf	14,2	;volatile
  7215  0B05                     l2367:	
  7216  0B05  108E               	bcf	14,1	;volatile
  7217  0B06                     l2369:	
  7218                           
  7219                           ;./flex_lcd.h: 79:     PORTCbits.RC0 = 0;
  7220  0B06  100E               	bcf	14,0	;volatile
  7221                           
  7222                           ;./flex_lcd.h: 80:     _delay((unsigned long)((5500)*(32000000/4000000.0)));
  7223  0B07  303A               	movlw	58
  7224  0B08  00F3               	movwf	??_Lcd_Init
  7225  0B09  3023               	movlw	35
  7226  0B0A                     u3707:	
  7227  0B0A  0B89               	decfsz	9,f
  7228  0B0B  2B0A               	goto	u3707
  7229  0B0C  0BF3               	decfsz	??_Lcd_Init,f
  7230  0B0D  2B0A               	goto	u3707
  7231  0B0E  0000               	nop
  7232  0B0F                     l2371:	
  7233                           
  7234                           ;./flex_lcd.h: 81: }
  7235  0B0F  3001               	movlw	1
  7236  0B10  00F3               	movwf	??_Lcd_Init
  7237  0B11  0873               	movf	??_Lcd_Init,w
  7238  0B12  07F4               	addwf	Lcd_Init@data,f
  7239  0B13                     l2373:	
  7240  0B13  3004               	movlw	4
  7241  0B14  0274               	subwf	Lcd_Init@data,w
  7242  0B15  1C03               	skipc
  7243  0B16  2B18               	goto	u2681
  7244  0B17  2B19               	goto	u2680
  7245  0B18                     u2681:	
  7246  0B18  2AEF               	goto	l31
  7247  0B19                     u2680:	
  7248  0B19                     l32:	
  7249                           
  7250                           ;./flex_lcd.h: 82: PORTCbits.RC5 = 0; PORTCbits.RC4 = 0; PORTCbits.RC3 = 1; PORTCbits.RC
      +                          2 = 0; PORTCbits.RC1 = 0; PORTCbits.RC0 = 0;
  7251  0B19  0020               	movlb	0	; select bank0
  7252  0B1A  128E               	bcf	14,5	;volatile
  7253  0B1B  120E               	bcf	14,4	;volatile
  7254  0B1C  158E               	bsf	14,3	;volatile
  7255  0B1D  110E               	bcf	14,2	;volatile
  7256  0B1E  108E               	bcf	14,1	;volatile
  7257  0B1F  100E               	bcf	14,0	;volatile
  7258                           
  7259                           ;./flex_lcd.h: 83: PORTCbits.RC5 = 0; PORTCbits.RC4 = 0; PORTCbits.RC3 = 1; PORTCbits.RC
      +                          2 = 0; PORTCbits.RC1 = 1; PORTCbits.RC0 = 0;
  7260  0B20  128E               	bcf	14,5	;volatile
  7261  0B21  120E               	bcf	14,4	;volatile
  7262  0B22  158E               	bsf	14,3	;volatile
  7263  0B23  110E               	bcf	14,2	;volatile
  7264  0B24  148E               	bsf	14,1	;volatile
  7265  0B25  100E               	bcf	14,0	;volatile
  7266  0B26                     l2375:	
  7267                           
  7268                           ;./flex_lcd.h: 84: _delay((unsigned long)((5)*(32000000/4000000.0)));
  7269  0B26  300D               	movlw	13
  7270  0B27                     u3717:	
  7271  0B27  0B89               	decfsz	9,f
  7272  0B28  2B27               	goto	u3717
  7273  0B29  0000               	nop
  7274  0B2A                     l2377:	
  7275                           
  7276                           ;./flex_lcd.h: 85: PORTCbits.RC5 = 0; PORTCbits.RC4 = 0; PORTCbits.RC3 = 1; PORTCbits.RC
      +                          2 = 0; PORTCbits.RC1 = 0; PORTCbits.RC0 = 0;
  7277  0B2A  0020               	movlb	0	; select bank0
  7278  0B2B  128E               	bcf	14,5	;volatile
  7279  0B2C                     l2379:	
  7280  0B2C  120E               	bcf	14,4	;volatile
  7281  0B2D                     l2381:	
  7282  0B2D  158E               	bsf	14,3	;volatile
  7283  0B2E                     l2383:	
  7284  0B2E  110E               	bcf	14,2	;volatile
  7285  0B2F                     l2385:	
  7286  0B2F  108E               	bcf	14,1	;volatile
  7287  0B30                     l2387:	
  7288  0B30  100E               	bcf	14,0	;volatile
  7289                           
  7290                           ;./flex_lcd.h: 86: _delay((unsigned long)((5500)*(32000000/4000000.0)));
  7291  0B31  303A               	movlw	58
  7292  0B32  00F3               	movwf	??_Lcd_Init
  7293  0B33  3023               	movlw	35
  7294  0B34                     u3727:	
  7295  0B34  0B89               	decfsz	9,f
  7296  0B35  2B34               	goto	u3727
  7297  0B36  0BF3               	decfsz	??_Lcd_Init,f
  7298  0B37  2B34               	goto	u3727
  7299  0B38  0000               	nop
  7300  0B39                     l2389:	
  7301  0B39  3028               	movlw	40
  7302  0B3A  318A  2216  318A   	fcall	_Lcd_Cmd
  7303  0B3D                     l2391:	
  7304  0B3D  3010               	movlw	16
  7305  0B3E  318A  2216  318A   	fcall	_Lcd_Cmd
  7306  0B41                     l2393:	
  7307  0B41  3001               	movlw	1
  7308  0B42  318A  2216  318A   	fcall	_Lcd_Cmd
  7309  0B45                     l2395:	
  7310  0B45                     l2397:	
  7311  0B45  300F               	movlw	15
  7312  0B46  318A  2216  318A   	fcall	_Lcd_Cmd
  7313  0B49                     l33:	
  7314  0B49  0008               	return
  7315  0B4A                     __end_of_Lcd_Init:	
  7316                           
  7317                           	psect	text25
  7318  0A16                     __ptext25:	
  7319 ;; *************** function _Lcd_Cmd *****************
  7320 ;; Defined at:
  7321 ;;		line 150 in file "./flex_lcd.h"
  7322 ;; Parameters:    Size  Location     Type
  7323 ;;  data            1    wreg     unsigned char 
  7324 ;; Auto vars:     Size  Location     Type
  7325 ;;  data            1    2[COMMON] unsigned char 
  7326 ;; Return value:  Size  Location     Type
  7327 ;;                  1    wreg      void 
  7328 ;; Registers used:
  7329 ;;		wreg, status,2, status,0
  7330 ;; Tracked objects:
  7331 ;;		On entry : 0/0
  7332 ;;		On exit  : 0/0
  7333 ;;		Unchanged: 0/0
  7334 ;; Data sizes:     COMMON   BANK0   BANK1   BANK2   BANK3   BANK4   BANK5   BANK6   BANK7   BANK8   BANK9  BANK10  BANK1
      +1  BANK12
  7335 ;;      Params:         0       0       0       0       0       0       0       0       0       0       0       0       
      +0       0
  7336 ;;      Locals:         1       0       0       0       0       0       0       0       0       0       0       0       
      +0       0
  7337 ;;      Temps:          2       0       0       0       0       0       0       0       0       0       0       0       
      +0       0
  7338 ;;      Totals:         3       0       0       0       0       0       0       0       0       0       0       0       
      +0       0
  7339 ;;Total ram usage:        3 bytes
  7340 ;; Hardware stack levels used:    1
  7341 ;; This function calls:
  7342 ;;		Nothing
  7343 ;; This function is called by:
  7344 ;;		_Lcd_Init
  7345 ;;		_Lcd_Out2
  7346 ;;		_main
  7347 ;;		_Lcd_Out
  7348 ;; This function uses a non-reentrant model
  7349 ;;
  7350                           
  7351                           
  7352                           ;psect for function _Lcd_Cmd
  7353  0A16                     _Lcd_Cmd:	
  7354                           
  7355                           ;incstack = 0
  7356                           ; Regs used in _Lcd_Cmd: [wreg+status,2+status,0]
  7357                           ;Lcd_Cmd@data stored from wreg
  7358  0A16  00F2               	movwf	Lcd_Cmd@data
  7359  0A17                     l2277:	
  7360                           
  7361                           ;./flex_lcd.h: 151: PORTCbits.RC1 = 0; PORTCbits.RC0 = 0;
  7362  0A17  0020               	movlb	0	; select bank0
  7363  0A18  108E               	bcf	14,1	;volatile
  7364  0A19  100E               	bcf	14,0	;volatile
  7365  0A1A                     l2279:	
  7366                           
  7367                           ;./flex_lcd.h: 152: PORTCbits.RC5 = (data & 0b10000000)>>7; PORTCbits.RC4 = (data & 0b01
      +                          000000)>>6;
  7368  0A1A  0872               	movf	Lcd_Cmd@data,w
  7369  0A1B  00F0               	movwf	??_Lcd_Cmd
  7370  0A1C  3007               	movlw	7
  7371  0A1D                     u2525:	
  7372  0A1D  36F0               	lsrf	??_Lcd_Cmd,f
  7373  0A1E  0B89               	decfsz	9,f
  7374  0A1F  2A1D               	goto	u2525
  7375  0A20  0870               	movf	??_Lcd_Cmd,w
  7376  0A21  3901               	andlw	1
  7377  0A22  00F1               	movwf	??_Lcd_Cmd+1
  7378  0A23  0EF1               	swapf	??_Lcd_Cmd+1,f
  7379  0A24  0DF1               	rlf	??_Lcd_Cmd+1,f
  7380  0A25  080E               	movf	14,w	;volatile
  7381  0A26  0671               	xorwf	??_Lcd_Cmd+1,w
  7382  0A27  39DF               	andlw	-33
  7383  0A28  0671               	xorwf	??_Lcd_Cmd+1,w
  7384  0A29  008E               	movwf	14	;volatile
  7385  0A2A  0872               	movf	Lcd_Cmd@data,w
  7386  0A2B  00F0               	movwf	??_Lcd_Cmd
  7387  0A2C  3006               	movlw	6
  7388  0A2D                     u2535:	
  7389  0A2D  36F0               	lsrf	??_Lcd_Cmd,f
  7390  0A2E  0B89               	decfsz	9,f
  7391  0A2F  2A2D               	goto	u2535
  7392  0A30  0870               	movf	??_Lcd_Cmd,w
  7393  0A31  3901               	andlw	1
  7394  0A32  00F1               	movwf	??_Lcd_Cmd+1
  7395  0A33  0EF1               	swapf	??_Lcd_Cmd+1,f
  7396  0A34  080E               	movf	14,w	;volatile
  7397  0A35  0671               	xorwf	??_Lcd_Cmd+1,w
  7398  0A36  39EF               	andlw	-17
  7399  0A37  0671               	xorwf	??_Lcd_Cmd+1,w
  7400  0A38  008E               	movwf	14	;volatile
  7401                           
  7402                           ;./flex_lcd.h: 153: PORTCbits.RC3 = (data & 0b00100000)>>5; PORTCbits.RC2 = (data & 0b00
      +                          010000)>>4;
  7403  0A39  0872               	movf	Lcd_Cmd@data,w
  7404  0A3A  00F0               	movwf	??_Lcd_Cmd
  7405  0A3B  3005               	movlw	5
  7406  0A3C                     u2545:	
  7407  0A3C  36F0               	lsrf	??_Lcd_Cmd,f
  7408  0A3D  0B89               	decfsz	9,f
  7409  0A3E  2A3C               	goto	u2545
  7410  0A3F  0870               	movf	??_Lcd_Cmd,w
  7411  0A40  3901               	andlw	1
  7412  0A41  00F1               	movwf	??_Lcd_Cmd+1
  7413  0A42  0DF1               	rlf	??_Lcd_Cmd+1,f
  7414  0A43  0DF1               	rlf	??_Lcd_Cmd+1,f
  7415  0A44  0DF1               	rlf	??_Lcd_Cmd+1,f
  7416  0A45  080E               	movf	14,w	;volatile
  7417  0A46  0671               	xorwf	??_Lcd_Cmd+1,w
  7418  0A47  39F7               	andlw	-9
  7419  0A48  0671               	xorwf	??_Lcd_Cmd+1,w
  7420  0A49  008E               	movwf	14	;volatile
  7421  0A4A  0872               	movf	Lcd_Cmd@data,w
  7422  0A4B  00F0               	movwf	??_Lcd_Cmd
  7423  0A4C  3004               	movlw	4
  7424  0A4D                     u2555:	
  7425  0A4D  36F0               	lsrf	??_Lcd_Cmd,f
  7426  0A4E  0B89               	decfsz	9,f
  7427  0A4F  2A4D               	goto	u2555
  7428  0A50  0870               	movf	??_Lcd_Cmd,w
  7429  0A51  3901               	andlw	1
  7430  0A52  00F1               	movwf	??_Lcd_Cmd+1
  7431  0A53  0DF1               	rlf	??_Lcd_Cmd+1,f
  7432  0A54  0DF1               	rlf	??_Lcd_Cmd+1,f
  7433  0A55  080E               	movf	14,w	;volatile
  7434  0A56  0671               	xorwf	??_Lcd_Cmd+1,w
  7435  0A57  39FB               	andlw	-5
  7436  0A58  0671               	xorwf	??_Lcd_Cmd+1,w
  7437  0A59  008E               	movwf	14	;volatile
  7438  0A5A                     l2281:	
  7439                           
  7440                           ;./flex_lcd.h: 154: _delay(10);
  7441  0A5A  3003               	movlw	3
  7442  0A5B                     u3737:	
  7443  0A5B  0B89               	decfsz	9,f
  7444  0A5C  2A5B               	goto	u3737
  7445  0A5D  0000               	nop
  7446  0A5E                     l2283:	
  7447                           
  7448                           ;./flex_lcd.h: 155: PORTCbits.RC1 = 1; _delay((unsigned long)((5)*(32000000/4000000.0)))
      +                          ; PORTCbits.RC1 = 0;
  7449  0A5E  0020               	movlb	0	; select bank0
  7450  0A5F  148E               	bsf	14,1	;volatile
  7451  0A60                     l2285:	
  7452  0A60  300D               	movlw	13
  7453  0A61                     u3747:	
  7454  0A61  0B89               	decfsz	9,f
  7455  0A62  2A61               	goto	u3747
  7456  0A63  0000               	nop
  7457  0A64                     l2287:	
  7458  0A64  0020               	movlb	0	; select bank0
  7459  0A65  108E               	bcf	14,1	;volatile
  7460                           
  7461                           ;./flex_lcd.h: 156: PORTCbits.RC5 = (data & 0b00001000)>>3; PORTCbits.RC4 = (data & 0b00
      +                          000100)>>2;
  7462  0A66  0872               	movf	Lcd_Cmd@data,w
  7463  0A67  00F0               	movwf	??_Lcd_Cmd
  7464  0A68  3003               	movlw	3
  7465  0A69                     u2565:	
  7466  0A69  36F0               	lsrf	??_Lcd_Cmd,f
  7467  0A6A  0B89               	decfsz	9,f
  7468  0A6B  2A69               	goto	u2565
  7469  0A6C  0870               	movf	??_Lcd_Cmd,w
  7470  0A6D  3901               	andlw	1
  7471  0A6E  00F1               	movwf	??_Lcd_Cmd+1
  7472  0A6F  0EF1               	swapf	??_Lcd_Cmd+1,f
  7473  0A70  0DF1               	rlf	??_Lcd_Cmd+1,f
  7474  0A71  080E               	movf	14,w	;volatile
  7475  0A72  0671               	xorwf	??_Lcd_Cmd+1,w
  7476  0A73  39DF               	andlw	-33
  7477  0A74  0671               	xorwf	??_Lcd_Cmd+1,w
  7478  0A75  008E               	movwf	14	;volatile
  7479  0A76  0872               	movf	Lcd_Cmd@data,w
  7480  0A77  00F0               	movwf	??_Lcd_Cmd
  7481  0A78  3002               	movlw	2
  7482  0A79                     u2575:	
  7483  0A79  36F0               	lsrf	??_Lcd_Cmd,f
  7484  0A7A  0B89               	decfsz	9,f
  7485  0A7B  2A79               	goto	u2575
  7486  0A7C  0870               	movf	??_Lcd_Cmd,w
  7487  0A7D  3901               	andlw	1
  7488  0A7E  00F1               	movwf	??_Lcd_Cmd+1
  7489  0A7F  0EF1               	swapf	??_Lcd_Cmd+1,f
  7490  0A80  080E               	movf	14,w	;volatile
  7491  0A81  0671               	xorwf	??_Lcd_Cmd+1,w
  7492  0A82  39EF               	andlw	-17
  7493  0A83  0671               	xorwf	??_Lcd_Cmd+1,w
  7494  0A84  008E               	movwf	14	;volatile
  7495                           
  7496                           ;./flex_lcd.h: 157: PORTCbits.RC3 = (data & 0b00000010)>>1; PORTCbits.RC2 = (data & 0b00
      +                          000001);
  7497  0A85  3672               	lsrf	Lcd_Cmd@data,w
  7498  0A86  3901               	andlw	1
  7499  0A87  00F0               	movwf	??_Lcd_Cmd
  7500  0A88  0DF0               	rlf	??_Lcd_Cmd,f
  7501  0A89  0DF0               	rlf	??_Lcd_Cmd,f
  7502  0A8A  0DF0               	rlf	??_Lcd_Cmd,f
  7503  0A8B  080E               	movf	14,w	;volatile
  7504  0A8C  0670               	xorwf	??_Lcd_Cmd,w
  7505  0A8D  39F7               	andlw	-9
  7506  0A8E  0670               	xorwf	??_Lcd_Cmd,w
  7507  0A8F  008E               	movwf	14	;volatile
  7508  0A90  0872               	movf	Lcd_Cmd@data,w
  7509  0A91  3901               	andlw	1
  7510  0A92  00F0               	movwf	??_Lcd_Cmd
  7511  0A93  0DF0               	rlf	??_Lcd_Cmd,f
  7512  0A94  0DF0               	rlf	??_Lcd_Cmd,f
  7513  0A95  080E               	movf	14,w	;volatile
  7514  0A96  0670               	xorwf	??_Lcd_Cmd,w
  7515  0A97  39FB               	andlw	-5
  7516  0A98  0670               	xorwf	??_Lcd_Cmd,w
  7517  0A99  008E               	movwf	14	;volatile
  7518  0A9A                     l2289:	
  7519                           
  7520                           ;./flex_lcd.h: 158: _delay(10);
  7521  0A9A  3003               	movlw	3
  7522  0A9B                     u3757:	
  7523  0A9B  0B89               	decfsz	9,f
  7524  0A9C  2A9B               	goto	u3757
  7525  0A9D  0000               	nop
  7526  0A9E                     l2291:	
  7527                           
  7528                           ;./flex_lcd.h: 159: PORTCbits.RC1 = 1; _delay((unsigned long)((5)*(32000000/4000000.0)))
      +                          ; PORTCbits.RC1 = 0;
  7529  0A9E  0020               	movlb	0	; select bank0
  7530  0A9F  148E               	bsf	14,1	;volatile
  7531  0AA0                     l2293:	
  7532  0AA0  300D               	movlw	13
  7533  0AA1                     u3767:	
  7534  0AA1  0B89               	decfsz	9,f
  7535  0AA2  2AA1               	goto	u3767
  7536  0AA3  0000               	nop
  7537  0AA4                     l2295:	
  7538  0AA4  0020               	movlb	0	; select bank0
  7539  0AA5  108E               	bcf	14,1	;volatile
  7540  0AA6                     l2297:	
  7541                           
  7542                           ;./flex_lcd.h: 160: _delay((unsigned long)((5500)*(32000000/4000000.0)));
  7543  0AA6  303A               	movlw	58
  7544  0AA7  00F0               	movwf	??_Lcd_Cmd
  7545  0AA8  3023               	movlw	35
  7546  0AA9                     u3777:	
  7547  0AA9  0B89               	decfsz	9,f
  7548  0AAA  2AA9               	goto	u3777
  7549  0AAB  0BF0               	decfsz	??_Lcd_Cmd,f
  7550  0AAC  2AA9               	goto	u3777
  7551  0AAD  0000               	nop
  7552  0AAE                     l65:	
  7553  0AAE  0008               	return
  7554  0AAF                     __end_of_Lcd_Cmd:	
  7555  007E                     btemp	set	126	;btemp
  7556  007E                     wtemp0	set	126


Data Sizes:
    Strings     32
    Constant    0
    Data        0
    BSS         40
    Persistent  32
    Stack       0

Auto Spaces:
    Space          Size  Autos    Used
    COMMON           14     14      14
    BANK0            80     79      79
    BANK1            80     42      50
    BANK2            80      0      32
    BANK3            80      0       0
    BANK4            80      0       0
    BANK5            80      0       0
    BANK6            80      0       0
    BANK7            80      0       0
    BANK8            80      0       0
    BANK9            80      0       0
    BANK10           80      0       0
    BANK11           80      0       0
    BANK12           48      0       0

Pointer List with Targets:

    strlen@s	PTR const unsigned char  size(1) Largest target is 32
		 -> dbuf(BANK2[32]), 

    strlen@a	PTR const unsigned char  size(1) Largest target is 32
		 -> dbuf(BANK2[32]), 

    sprintf@fmt	PTR const unsigned char  size(2) Largest target is 16
		 -> STR_2(CODE[16]), STR_1(CODE[16]), 

    sprintf@s	PTR unsigned char  size(1) Largest target is 16
		 -> main@buffer1(BANK1[16]), 

    sprintf@ap	PTR void [1] size(1) Largest target is 2
		 -> ?_sprintf(BANK0[2]), 

    f.buffer	PTR unsigned char  size(1) Largest target is 16
		 -> main@buffer1(BANK1[16]), 

    fputs@s	PTR const unsigned char  size(1) Largest target is 32
		 -> dbuf(BANK2[32]), 

    fputs@fp	PTR struct _IO_FILE size(1) Largest target is 6
		 -> sprintf@f(BANK1[5]), 

    S841_IO_FILE$buffer	PTR unsigned char  size(1) Largest target is 16
		 -> main@buffer1(BANK1[16]), 

    fputc@fp.buffer	PTR unsigned char  size(1) Largest target is 16
		 -> main@buffer1(BANK1[16]), 

    fputc@fp	PTR struct _IO_FILE size(1) Largest target is 6
		 -> sprintf@f(BANK1[5]), 

    atoi@s	PTR const unsigned char  size(2) Largest target is 16
		 -> STR_2(CODE[16]), STR_1(CODE[16]), 

    vfprintf@ap	PTR PTR void  size(1) Largest target is 1
		 -> sprintf@ap(BANK1[1]), 

    vfprintf@fp	PTR struct _IO_FILE size(1) Largest target is 6
		 -> sprintf@f(BANK1[5]), 

    vfprintf@fmt	PTR const unsigned char  size(2) Largest target is 16
		 -> STR_2(CODE[16]), STR_1(CODE[16]), 

    vfprintf@cfmt	PTR unsigned char  size(2) Largest target is 16
		 -> STR_2(CODE[16]), STR_1(CODE[16]), 

    vfpfcnvrt@fp	PTR struct _IO_FILE size(1) Largest target is 6
		 -> sprintf@f(BANK1[5]), 

    vfpfcnvrt@ap	PTR PTR void  size(1) Largest target is 1
		 -> sprintf@ap(BANK1[1]), 

    vfpfcnvrt@fmt	PTR PTR unsigned char  size(1) Largest target is 2
		 -> vfprintf@cfmt(BANK0[2]), 

    dtoa@fp	PTR struct _IO_FILE size(1) Largest target is 6
		 -> sprintf@f(BANK1[5]), 

    pad@fp	PTR struct _IO_FILE size(1) Largest target is 6
		 -> sprintf@f(BANK1[5]), 

    pad@buf	PTR unsigned char  size(1) Largest target is 32
		 -> dbuf(BANK2[32]), 

    Lcd_Out2@buffer	PTR unsigned char  size(1) Largest target is 16
		 -> main@buffer1(BANK1[16]), 


Critical Paths under _main in COMMON

    _main->___xxtofl
    _main->_sprintf
    _dtoa->_pad
    _pad->_fputs
    _fputs->_fputc
    _abs->___aomod
    _atoi->___wmul
    _atoi->_isdigit
    ___fltol->___xxtofl
    ___flmul->___xxtofl
    ___fldiv->___xxtofl
    _Lcd_Out2->_Lcd_Chr_CP
    _Lcd_Out2->_Lcd_Cmd
    _Lcd_Init->_Lcd_Cmd

Critical Paths under _main in BANK0

    _main->_sprintf
    _sprintf->_vfprintf
    _vfprintf->_vfpfcnvrt
    _vfpfcnvrt->_dtoa
    _dtoa->___aodiv
    _dtoa->___aomod
    _pad->_fputs
    _abs->___aomod
    ___fltol->___fldiv
    ___fldiv->___flmul

Critical Paths under _main in BANK1

    _main->_sprintf

Critical Paths under _main in BANK2

    None.

Critical Paths under _main in BANK3

    None.

Critical Paths under _main in BANK4

    None.

Critical Paths under _main in BANK5

    None.

Critical Paths under _main in BANK6

    None.

Critical Paths under _main in BANK7

    None.

Critical Paths under _main in BANK8

    None.

Critical Paths under _main in BANK9

    None.

Critical Paths under _main in BANK10

    None.

Critical Paths under _main in BANK11

    None.

Critical Paths under _main in BANK12

    None.

Call Graph Tables:

 ---------------------------------------------------------------------------------
 (Depth) Function   	        Calls       Base Space   Used Autos Params    Refs
 ---------------------------------------------------------------------------------
 (0) _main                                                33    33      0   14499
                                              9 BANK1     33    33      0
                            _Lcd_Cmd
                           _Lcd_Init
                           _Lcd_Out2
                            ___fldiv
                            ___flmul
                            ___fltol
                           ___xxtofl
                            _sprintf
 ---------------------------------------------------------------------------------
 (1) _sprintf                                             14    10      4    7898
                                             13 COMMON     1     1      0
                                             75 BANK0      4     0      4
                                              0 BANK1      9     9      0
                           _vfprintf
 ---------------------------------------------------------------------------------
 (2) _vfprintf                                             8     5      3    7479
                                             67 BANK0      8     5      3
                          _vfpfcnvrt
 ---------------------------------------------------------------------------------
 (3) _vfpfcnvrt                                           43    41      2    7149
                                             46 BANK0     21    19      2
                               _atoi
                               _dtoa
                              _fputc
                            _isdigit
 ---------------------------------------------------------------------------------
 (4) _dtoa                                                30    22      8    4143
                                             16 BANK0     30    22      8
                            ___aodiv
                            ___aomod
                                _abs
                                _pad
 ---------------------------------------------------------------------------------
 (5) _pad                                                  9     6      3    2537
                                             12 COMMON     1     1      0
                                              4 BANK0      8     5      3
                              _fputc
                              _fputs
                             _strlen
 ---------------------------------------------------------------------------------
 (6) _strlen                                               5     3      2     123
                                              0 COMMON     5     3      2
 ---------------------------------------------------------------------------------
 (6) _fputs                                                8     7      1    1149
                                              8 COMMON     4     3      1
                                              0 BANK0      4     4      0
                              _fputc
 ---------------------------------------------------------------------------------
 (4) _fputc                                                8     5      3     834
                                              0 COMMON     8     5      3
                              _putch
 ---------------------------------------------------------------------------------
 (5) _putch                                                1     1      0       0
 ---------------------------------------------------------------------------------
 (5) _abs                                                  4     2      2     142
                                              3 COMMON     4     2      2
                            ___aomod (ARG)
 ---------------------------------------------------------------------------------
 (5) ___aomod                                             19     3     16     448
                                              0 COMMON     3     3      0
                                              0 BANK0     16     0     16
 ---------------------------------------------------------------------------------
 (5) ___aodiv                                             27    11     16     452
                                              0 COMMON    11    11      0
                                              0 BANK0     16     0     16
 ---------------------------------------------------------------------------------
 (4) _atoi                                                15    13      2    1085
                                              6 COMMON     6     4      2
                                              0 BANK0      9     9      0
                             ___wmul
                            _isdigit
                            _isspace
 ---------------------------------------------------------------------------------
 (5) _isspace                                              5     3      2     207
                                              0 COMMON     5     3      2
 ---------------------------------------------------------------------------------
 (4) _isdigit                                              6     4      2     237
                                              0 COMMON     6     4      2
 ---------------------------------------------------------------------------------
 (5) ___wmul                                               6     2      4     244
                                              0 COMMON     6     2      4
 ---------------------------------------------------------------------------------
 (1) ___xxtofl                                            14    10      4     474
                                              0 COMMON    14    10      4
 ---------------------------------------------------------------------------------
 (1) ___fltol                                             11     7      4     305
                                             52 BANK0     11     7      4
                            ___fldiv (ARG)
                            ___flmul (ARG)
                           ___xxtofl (ARG)
 ---------------------------------------------------------------------------------
 (1) ___flmul                                             26    18      8    2721
                                              0 BANK0     26    18      8
                          __Umul8_16
                           ___xxtofl (ARG)
 ---------------------------------------------------------------------------------
 (2) __Umul8_16                                            9     7      2     799
                                              0 COMMON     9     7      2
 ---------------------------------------------------------------------------------
 (1) ___fldiv                                             26    18      8    1425
                                             26 BANK0     26    18      8
                            ___flmul (ARG)
                           ___xxtofl (ARG)
 ---------------------------------------------------------------------------------
 (1) _Lcd_Out2                                             6     4      2     837
                                              3 COMMON     6     4      2
                         _Lcd_Chr_CP
                            _Lcd_Cmd
 ---------------------------------------------------------------------------------
 (2) _Lcd_Chr_CP                                           3     3      0     176
                                              0 COMMON     3     3      0
 ---------------------------------------------------------------------------------
 (1) _Lcd_Init                                             2     2      0     314
                                              3 COMMON     2     2      0
                            _Lcd_Cmd
 ---------------------------------------------------------------------------------
 (2) _Lcd_Cmd                                              3     3      0     176
                                              0 COMMON     3     3      0
 ---------------------------------------------------------------------------------
 Estimated maximum stack depth 6
 ---------------------------------------------------------------------------------

 Call Graph Graphs:

 _main (ROOT)
   _Lcd_Cmd
   _Lcd_Init
     _Lcd_Cmd
   _Lcd_Out2
     _Lcd_Chr_CP
     _Lcd_Cmd
   ___fldiv
     ___flmul (ARG)
       __Umul8_16
       ___xxtofl (ARG)
     ___xxtofl (ARG)
   ___flmul
     __Umul8_16
     ___xxtofl (ARG)
   ___fltol
     ___fldiv (ARG)
       ___flmul (ARG)
         __Umul8_16
         ___xxtofl (ARG)
       ___xxtofl (ARG)
     ___flmul (ARG)
       __Umul8_16
       ___xxtofl (ARG)
     ___xxtofl (ARG)
   ___xxtofl
   _sprintf
     _vfprintf
       _vfpfcnvrt
         _atoi
           ___wmul
           _isdigit
           _isspace
         _dtoa
           ___aodiv
           ___aomod
           _abs
             ___aomod (ARG)
           _pad
             _fputc
               _putch
             _fputs
               _fputc
                 _putch
             _strlen
         _fputc
           _putch
         _isdigit

 Address spaces:
Name               Size   Autos  Total    Cost      Usage
BIGRAM             3F0      0       0       0        0.0%
EEDATA             100      0       0       0        0.0%
NULL                 0      0       0       0        0.0%
CODE                 0      0       0       0        0.0%
BITCOMMON            E      0       0       1        0.0%
BITSFR0              0      0       0       1        0.0%
SFR0                 0      0       0       1        0.0%
COMMON               E      E       E       2      100.0%
BITSFR1              0      0       0       2        0.0%
SFR1                 0      0       0       2        0.0%
BITSFR2              0      0       0       3        0.0%
SFR2                 0      0       0       3        0.0%
STACK                0      0       0       3        0.0%
BITBANK0            50      0       0       4        0.0%
BITSFR3              0      0       0       4        0.0%
SFR3                 0      0       0       4        0.0%
BANK0               50     4F      4F       5       98.8%
BITSFR4              0      0       0       5        0.0%
SFR4                 0      0       0       5        0.0%
BITBANK1            50      0       0       6        0.0%
BITSFR5              0      0       0       6        0.0%
SFR5                 0      0       0       6        0.0%
BANK1               50     2A      32       7       62.5%
BITSFR6              0      0       0       7        0.0%
SFR6                 0      0       0       7        0.0%
BITBANK2            50      0       0       8        0.0%
BITSFR7              0      0       0       8        0.0%
SFR7                 0      0       0       8        0.0%
BANK2               50      0      20       9       40.0%
BITSFR8              0      0       0       9        0.0%
SFR8                 0      0       0       9        0.0%
BITBANK3            50      0       0      10        0.0%
BITSFR9              0      0       0      10        0.0%
SFR9                 0      0       0      10        0.0%
BANK3               50      0       0      11        0.0%
BITSFR10             0      0       0      11        0.0%
SFR10                0      0       0      11        0.0%
BITBANK4            50      0       0      12        0.0%
BITSFR11             0      0       0      12        0.0%
SFR11                0      0       0      12        0.0%
BANK4               50      0       0      13        0.0%
BITSFR12             0      0       0      13        0.0%
SFR12                0      0       0      13        0.0%
BITBANK5            50      0       0      14        0.0%
BITSFR13             0      0       0      14        0.0%
SFR13                0      0       0      14        0.0%
BANK5               50      0       0      15        0.0%
BITSFR14             0      0       0      15        0.0%
SFR14                0      0       0      15        0.0%
BITBANK6            50      0       0      16        0.0%
BITSFR15             0      0       0      16        0.0%
SFR15                0      0       0      16        0.0%
BANK6               50      0       0      17        0.0%
BITSFR16             0      0       0      17        0.0%
SFR16                0      0       0      17        0.0%
BITBANK7            50      0       0      18        0.0%
BITSFR17             0      0       0      18        0.0%
SFR17                0      0       0      18        0.0%
BANK7               50      0       0      19        0.0%
BITSFR18             0      0       0      19        0.0%
SFR18                0      0       0      19        0.0%
BITSFR19             0      0       0      20        0.0%
SFR19                0      0       0      20        0.0%
ABS                  0      0      AF      20        0.0%
BITBANK8            50      0       0      21        0.0%
BITSFR20             0      0       0      21        0.0%
SFR20                0      0       0      21        0.0%
BANK8               50      0       0      22        0.0%
BITSFR21             0      0       0      22        0.0%
SFR21                0      0       0      22        0.0%
BITBANK9            50      0       0      23        0.0%
BITSFR22             0      0       0      23        0.0%
SFR22                0      0       0      23        0.0%
BANK9               50      0       0      24        0.0%
BITSFR23             0      0       0      24        0.0%
SFR23                0      0       0      24        0.0%
BITBANK10           50      0       0      25        0.0%
BITSFR24             0      0       0      25        0.0%
SFR24                0      0       0      25        0.0%
BANK10              50      0       0      26        0.0%
BITSFR25             0      0       0      26        0.0%
SFR25                0      0       0      26        0.0%
BITBANK11           50      0       0      27        0.0%
BITSFR26             0      0       0      27        0.0%
SFR26                0      0       0      27        0.0%
BANK11              50      0       0      28        0.0%
BITSFR27             0      0       0      28        0.0%
SFR27                0      0       0      28        0.0%
BITBANK12           30      0       0      29        0.0%
BITSFR28             0      0       0      29        0.0%
SFR28                0      0       0      29        0.0%
BANK12              30      0       0      30        0.0%
BITSFR29             0      0       0      30        0.0%
SFR29                0      0       0      30        0.0%
BITSFR30             0      0       0      31        0.0%
SFR30                0      0       0      31        0.0%
DATA                 0      0      AF      31        0.0%
BITSFR31             0      0       0      32        0.0%
SFR31                0      0       0      32        0.0%


Microchip Technology PIC Macro Assembler V2.10 build 88905656 
Symbol Table                                                                                   Sat Apr 11 19:38:12 2020

           ___fldiv@aexp 0053             ___fldiv@bexp 0052             ___fldiv@sign 004B  
            __CFG_CP$OFF 0000                       l31 0AEF                       l32 0B19  
                     l33 0B49                       l62 00A5                       l71 00DB  
                     l65 0AAE                       l59 08F8                       l77 01DB  
                     _GO 04E9      ___wmul@multiplicand 0072      __Umul8_16@word_mpld 0076  
            __CFG_LVP$ON 0000                      l300 0273                      l301 0276  
                    l302 0279                      l303 027C                      l320 03E1  
                    l305 02AE                      l331 17CA                      l260 0964  
                    l333 17DE                      l431 0E7E                      l263 0986  
                    l327 08AF                      l432 0E8F                      l265 09A0  
                    l273 0EFF                      l274 0F17                      l291 0FFF  
                    l532 0A00                      l444 0D7D                      l268 0ED9  
                    l525 0A15                      l445 0D8E                      l277 0F88  
                    l269 0EE2                      l710 057D                      l535 0A15  
                    l712 058C                      l704 0517                      l298 0267  
                    l740 07E0                      l709 0563                      l734 0768  
                    l822 178B                      l830 17FF                      l806 0C33  
                    l728 07EC                      l690 0595                      l819 0CA4  
                    l780 0BCD                      l772 0BA7                      l860 0855  
                    l845 0947                      l853 087E                      l766 0B6C  
                    l863 0008                      l688 0439                      l768 0BF5  
                    l873 0821                      l785 17A5                      l875 0831  
                    l779 0BC1                      l788 17A5                      l869 17BF  
           __CFG_CPD$OFF 0000                      _abs 178C                      _pad 0948  
           __CFG_BORV$LO 0000                      wreg 0009             __CFG_IESO$ON 0000  
           ___flmul@aexp 0032             ___flmul@bexp 0033             ___flmul@sign 002D  
           ___flmul@temp 0038             ___flmul@prod 0034              main@buffer1 00AC  
           ___fltol@exp1 005E                     l2001 0D8F                     l2011 0DE4  
                   l2003 0D90                     ?_abs 0073                     l2021 0E0A  
                   l2013 0DE8                     l2005 0D9A                     l2101 0F1C  
                   l2031 0E4C                     l2023 0E0E                     l2015 0DF2  
                   l2007 0DBB                     l2111 0F5B                     l2103 0F1F  
                   l2033 0E4D                     l2025 0E12                     l2017 0DFF  
                   l2009 0DC5                     l2041 0CA6                     l2113 0F96  
                   l2121 0FC3                     l2105 0F24                     l2027 0E1A  
                   l2019 0E02                     l2035 0E5B                     l2051 0D07  
                   l2043 0CB0                     l2131 0FDF                     l2123 0FCA  
                   l2115 0FA3                     l2107 0F53                     l2211 02A8  
                   l2301 000D                     l2141 0BFC                     l2037 0E60  
                   l2029 0E3C                     l2061 0D3C                     l2053 0D0A  
                   l2045 0CD1                     l2133 0FE3                     l2125 0FCF  
                   l2117 0FB0                     l2109 0F57                     l2221 02DE  
                   l2213 02B3                     l2205 027F                     l2311 008D  
                   l2303 004D                     l2071 17E1                     l2151 0C21  
                   l2143 0C00                     l2063 0D4C                     l2055 0D12  
                   l2047 0CDB                     l2039 0CA5                     l2127 0FD4  
                   l2135 0FEC                     l2119 0FBE                     l2231 0301  
                   l2223 02E2                     l2215 02B7                     l2321 009D  
                   l2313 0091                     l2305 0051                     l2401 08B2  
                   l2073 17E8                     l2161 0C4C                     l2145 0C02  
                   l2057 0D16                     l2065 0D5A                     l2049 0CFA  
                   l2129 0FDA                     l2081 0E92                     l2241 034E  
                   l2225 02E3                     l2217 02C9                     l2209 0284  
                   l2315 0093                     l2307 0053                     l2403 08B8  
                   l2411 08CA                     l2075 17F7                     l2171 0C8E  
                   l2155 0C28                     l2147 0C0C                     l2139 0BF6  
                   l2067 0D5F                     l2059 0D1A                     l2091 0EF1  
                   l2083 0EA2                     l2251 039A                     l2243 0356  
                   l2235 0325                     l2219 02D1                     l2227 02E9  
                   l2331 08A7                     l2323 0881                     l2317 0097  
                   l2309 0057                     l2405 08BE                     l2413 08E0  
                   l2501 041C                     l2341 081D                     l2077 17F8  
                   l2069 17DF                     l2173 0C94                     l2165 0C6C  
                   l2157 0C2F                     l2149 0C20                     l2093 0EF7  
                   l2085 0EB5                     l2261 03BB                     l2253 03A2  
                   l2245 036F                     l2229 02F9                     l2237 032B  
                   l2325 0885                     l2351 0ABD                     l2319 0099  
                   l2415 08E5                     l2407 08C4                     l2503 0421  
                   l2511 0431                     l2343 0828                     l2335 0810  
                   l2175 0CA0                     l2159 0C38                     l2095 0F07  
                   l2087 0EBB                     l2255 03AD                     l2239 033D  
                   l2191 025F                     l2327 0889                     l2431 0840  
                   l2281 0A5A                     l2361 0B02                     l2353 0AED  
                   l2417 08EC                     l2601 057C                     l2513 0441  
                   l2521 045A                     l2505 0426                     l2345 082D  
                   l2337 0812                     l2169 0C88                     l2097 0F0D  
                   l2089 0EDE                     l2249 0389                     l2193 0263  
                   l2265 03BE                     l2185 0241                     l2329 089D  
                   l2433 084D                     l2425 0834                     l2291 0A9E  
                   l2283 0A5E                     l2371 0B0F                     l2363 0B03  
                   l2419 08F0                     l2603 0582                     l2531 0480  
                   l2523 045F                     l2515 044D                     l2507 042E  
                   l2339 0819                     l2451 09D4                     l2443 09B6  
                   l2099 0F12                     l2267 03D7                     l2259 03B3  
                   l2195 0269                     l2187 0252                     l2427 083C  
                   l2293 0AA0                     l2285 0A60                     l2277 0A17  
                   l2381 0B2D                     l2373 0B13                     l2365 0B04  
                   l2357 0AFC                     l2349 0AAF                     l2605 0586  
                   l2541 04A5                     l2533 0488                     l2517 0451  
                   l2509 042F                     l2701 0738                     l2621 05A5  
                   l2613 0596                     l2453 09D8                     l2461 09F0  
                   l2445 09C9                     l2437 09A1                     l2189 025A  
                   l2429 083E                     l2295 0AA4                     l2287 0A64  
                   l2279 0A1A                     l2391 0B3D                     l2383 0B2E  
                   l2375 0B26                     l2367 0B05                     l2359 0B00  
                   l2607 0588                     l2551 04C4                     l2543 04A9  
                   l2535 0490                     l2527 0468                     l2711 074C  
                   l2703 073C                     l2631 05C1                     l2623 05AA  
                   l2615 059C                     l2471 0A0A                     l2447 09CA  
                   l2439 09AD                     l2297 0AA6                     l2289 0A9A  
                   l2393 0B41                     l2385 0B2F                     l2377 0B2A  
                   l2369 0B06                     l2561 04E0                     l2553 04CC  
                   l2545 04AA                     l2537 0492                     l2529 0478  
                   l2481 03F1                     l2473 03E2                     l2721 076D  
                   l2713 074D                     l2705 073D                     l2641 05D4  
                   l2633 05C6                     l2625 05AF                     l2617 05A0  
                   l2449 09D2                     l2395 0B45                     l2387 0B30  
                   l2379 0B2C                     l2299 000A                     l2563 04E7  
                   l2571 04F7                     l2539 0497                     l2547 04B1  
                   l2555 04D0                     l2483 03F6                     l2491 0406  
                   l2475 03E8                     l2723 0772                     l2731 079A  
                   l2715 0751                     l2707 0744                     l2651 05F0  
                   l2643 05D9                     l2635 05CA                     l2627 05B7  
                   l2619 05A4                     l2467 09F7                     l2459 09E0  
                   l1931 0912                     l1923 08F9                     l2397 0B45  
                   l2389 0B39                     l2573 04FB                     l2565 04EB  
                   l2557 04D6                     l2549 04C3                     l2493 040E  
                   l2485 03FB                     l2477 03EC                     l2741 07CA  
                   l2733 07A7                     l2725 077A                     l2717 0765  
                   l2709 0748                     l2661 0618                     l2653 05F5  
                   l2645 05E1                     l2637 05CE                     l2629 05B9  
                   l2469 0A05                     l1933 092F                     l1925 08FE  
                   l1941 085B                     l2399 08B1                     l2591 0545  
                   l2583 051C                     l2575 04FC                     l2567 04EC  
                   l2559 04DE                     l2495 0413                     l2487 0403  
                   l2479 03F0                     l2743 07D7                     l2735 07B1  
                   l2727 077E                     l2671 0673                     l2663 0632  
                   l2647 05E3                     l2639 05CF                     l1935 093F  
                   l1927 0903                     l1943 0869                     l1951 17B0  
                   l2831 00B4                     l2823 00A6                     l2585 0521  
                   l2593 0549                     l2577 0500                     l2569 04F3  
                   l2497 0417                     l2489 0404                     l2745 07DB  
                   l2737 07BF                     l2729 0796                     l2681 06A2  
                   l2673 067A                     l2665 063F                     l2657 05FE  
                   l2649 05EB                     l2761 0B74                     l2753 0B4B  
                   l1929 0908                     l1945 086E                     l1953 17B9  
                   l1961 0958                     l2841 00C0                     l2833 00B7  
                   l2825 00AB                     l2595 0556                     l2587 0529  
                   l2579 0514                     l2499 041B                     l2747 07DC  
                   l2739 07C8                     l2691 06F2                     l2683 06B6  
                   l2675 0687                     l2667 0659                     l2659 060B  
                   l2771 0B94                     l2755 0B50                     l1939 0858  
                   l1947 17A7                     l1971 0978                     l1963 095D  
                   l2851 00CD                     l2843 00C1                     l2835 00BB  
                   l2827 00AF                     l2597 0571                     l2589 052D  
                   l2749 07E4                     l2693 0707                     l2685 06BD  
                   l2677 068E                     l2669 0666                     l2781 0BBB  
                   l2773 0B98                     l2765 0B7D                     l2757 0B54  
                   l1981 1799                     l1949 17AC                     l1973 098B  
                   l1965 0962                     l1957 094A                     l2861 0199  
                   l2853 00D9                     l2845 00C2                     l2837 00BC  
                   l2829 00B1                     ?_pad 0024                     l2599 0574  
                   l2695 071E                     l2687 06D1                     l2679 069B  
                   l2791 0BEC                     l2783 0BC5                     l2775 0BA0  
                   l2767 0B82                     l2759 0B64                     l1991 17C6  
                   l1983 1774                     l1975 0994                     l1967 0967  
                   l1959 094F                     l2871 01C7                     l2863 019F  
                   l2855 00DF                     l2847 00C5                     l2839 00BE  
                   l2961 08D2                     l2697 0725                     l2689 06DE  
                   l2793 0BED                     l2785 0BCF                     l2777 0BAE  
                   l2769 0B8D                     l1993 17CF                     l1969 0973  
                   l2881 0213                     l2873 01D5                     l2865 01AD  
                   l2857 00FC                     l2849 00C9                     l2699 0731  
                   l2787 0BE3                     l2779 0BB7                     l1995 17D4  
                   l1987 17C0                     l1979 178C                     l2883 0224  
                   l2867 01B3                     l2875 01DB                     l2859 0145  
                   l2789 0BE8                     l1997 17DA                     l1989 17C2  
                   l2957 0297                     l2885 022F                     l2877 01EC  
                   l2869 01C1                     l2959 0C44                     l2879 01F7  
                   STR_1 1800                     STR_2 1810                     u2000 0DFF  
                   u2001 0DFE                     u2010 0E12                     u2011 0E11  
                   u2020 0E3C                     u2100 0D07                     u2021 0E3B  
                   u2101 0D06                     u2030 0E5B                     u2110 0D1A  
                   u2031 0E5A                     u2111 0D19                     u3000 0500  
                   u2040 0E60                     u2120 0D3C                     u2200 0EBB  
                   u3001 04FF                     u2041 0E5F                     u2025 0E38  
                   u2121 0D3B                     u2201 0EBA                     u3010 0514  
                   u2130 0D5A                     u3011 0513                     u2131 0D59  
                   u3020 051B                     u3100 05AA                     u2140 0D5F  
                   u2060 0CB0                     u2300 0FC3                     u2220 0EDE  
                   u3021 051A                     u3101 05A9                     u2141 0D5E  
                   u2125 0D38                     u2061 0CAF                     u2301 0FC2  
                   u2221 0EDD                     u3030 0521                     u3110 05AF  
                   u2310 0FCA                     u2230 0EF1                     u3031 0520  
                   u3111 05AE                     u2311 0FC9                     u2231 0EF0  
                   u3040 052D                     u3200 0714                     u3120 05CE  
                   u2160 17E8                     u2400 0C94                     u2080 0CDB  
                   u2320 0FCF                     u2240 0F0D                     u3041 052C  
                   u3121 05CD                     u2161 17E7                     u2401 0C93  
                   u2081 0CDA                     u2321 0FCE                     u2241 0F0C  
                   u3050 053B                     u3130 05D4                     u2170 17F7  
                   u2330 0FDA                     u2250 0F12                     u2410 0252  
                   u3131 05D3                     u2171 17F6                     u2331 0FD9  
                   u2251 0F11                     u2235 0EED                     u2411 0251  
                   u3060 0556                     u3300 077E                     u3140 05D9  
                   u2340 0C0C                     u2260 0F96                     u2180 0EAD  
                   u2500 034E                     u2420 02AE                     u3061 0555  
                   u3301 077D                     u3205 0710                     u3141 05D8  
                   u2341 0C0B                     u2261 0F95                     u2181 0EAB  
                   u2501 034D                     u2421 02AD                     u3070 0571  
                   u3310 078C                     u3230 073C                     u3150 05F0  
                   u2350 0C20                     u2270 0FA3                     u2190 0EAE  
                   u2510 039A                     u2430 02B3                     u3071 0570  
                   u3055 0537                     u3231 073B                     u3215 071F  
                   u3151 05EF                     u2351 0C1F                     u2271 0FA2  
                   u2511 0399                     u2431 02B2                     u3080 0586  
                   u3320 07A7                     u3160 05F5                     u2360 0C2E  
                   u1800 0912                     u2280 0FB0                     u2440 02C9  
                   u3081 0585                     u3065 0552                     u3321 07A6  
                   u3225 0732                     u3161 05F4                     u2361 0C2D  
                   u1801 0911                     u2281 0FAF                     u2265 0F92  
                   u2441 02C8                     u3330 07BF                     u3250 074C  
                   u3090 05A4                     u3410 0BAD                     u2370 0C81  
                   u1810 092F                     u2290 0FBE                     u2450 02E2  
                   u3075 056D                     u3331 07BE                     u3315 0788  
                   u3251 074B                     u3091 05A3                     u3411 0BAC  
                   u2371 0C7F                     u1811 092E                     u2291 0FBD  
                   u2451 02E1                     u3340 07DB                     u3260 0751  
                   u2700 09AD                     u1900 1785                     u2380 0C82  
                   u1820 087E                     u2460 031E                     u3500 00DF  
                   u2525 0A1D                     u2605 002F                     u3341 07DA  
                   u3325 07A3                     u3261 0750                     u3245 073E  
                   u2701 09AC                     u3405 0BA1                     u1821 087D  
                   u2285 0FAC                     u2461 031C                     u3501 00DE  
                   u3270 0765                     u3190 06FD                     u2710 09C3  
                   u3430 0BBB                     u3350 0B50                     u1910 17C6  
                   u2390 0C8E                     u1830 17B9                     u2470 031F  
                   u3510 0199                     u2535 0A2D                     u2615 0040  
                   u3335 07BB                     u3271 0764                     u3175 0674  
                   u3431 0BBA                     u3351 0B4F                     u1911 17C5  
                   u2391 0C8D                     u1815 092B                     u1831 17B8  
                   u2295 0FBA                     u3511 0198                     u2800 03F0  
                   u3280 076C                     u2720 09D8                     u3440 0BC1  
                   u3360 0B54                     u1840 094F                     u2480 032B  
                   u2640 08A7                     u3520 01AD                     u2545 0A3C  
                   u2625 005C                     u2801 03EF                     u3281 076B  
                   u3185 06A3                     u2721 09D7                     u3441 0BC0  
                   u3425 0BB1                     u3361 0B53                     u1841 094E  
                   u2481 032A                     u2641 08A6                     u3521 01AC  
                   u2810 03F6                     u2650 081D                     u3290 0772  
                   u2730 09DF                     u3450 0BC5                     u3370 0B74  
                   u1850 095D                     u2490 033D                     u3530 01C1  
                   u2555 0A4D                     u2635 006C                     u2811 03F5  
                   u2651 081C                     u3291 0771                     u3195 06F9  
                   u2731 09DE                     u2715 09BF                     u3451 0BC4  
                   u3371 0B73                     u1851 095C                     u2491 033C  
                   u3531 01C0                     u3515 0195                     u2820 03FB  
                   u3460 0BD9                     u1940 17DA                     u1780 08FE  
                   u1860 0986                     u3540 01D5                     u2565 0A69  
                   u2821 03FA                     u1941 17D9                     u1925 17CB  
                   u1781 08FD                     u1861 0985                     u3541 01D4  
                   u3525 01A9                     u2910 04A9                     u2830 041B  
                   u2670 082D                     u2750 09EF                     u3470 0BE8  
                   u3390 0B93                     u1950 0D9A                     u1790 0903  
                   u1870 098B                     u2575 0A79                     u3607 0094  
                   u2911 04A8                     u2831 041A                     u2671 082C  
                   u2751 09EE                     u3471 0BE7                     u3391 0B92  
                   u1935 17D0                     u1951 0D99                     u1791 0902  
                   u1871 098A                     u3535 01BD                     u2680 0B19  
                   u2840 0421                     u2760 09F6                     u3480 0BEC  
                   u1880 1799                     u2681 0B18                     u3617 009A  
                   u2585 0010                     u2905 049F                     u2841 0420  
                   u2665 0822                     u2761 09F5                     u2745 09E1  
                   u3481 0BEB                     u3465 0BD5                     u3385 0B87  
                   u1881 1798                     u1865 0982                     u3545 01D1  
                   u2690 08F8                     u2930 04C3                     u2850 0426  
                   u1890 1784                     u1970 0DC5                     u3707 0B0A  
                   u3627 00A0                     u2595 0020                     u2691 08F7  
                   u2931 04C2                     u2851 0425                     u1891 1782  
                   u1971 0DC4                     u2940 04D6                     u2860 0441  
                   u2780 0A05                     u3717 0B27                     u3637 0AC0  
                   u2941 04D5                     u2925 04AB                     u2861 0440  
                   u2781 0A04                     u1885 1795                     u3557 00D3  
                   u2950 04DE                     u2870 045F                     u2790 0A0A  
                   u1990 0DEF                     u3727 0B34                     u3647 0AC8  
                   u2951 04DD                     u2935 04BF                     u2871 045E  
                   u2791 0A09                     u2775 09F8                     u3567 0235  
                   u2880 0497                     u3737 0A5B                     u3657 0AD0  
                   u3577 004E                     u2881 0496                     u2970 04EB  
                   u3747 0A61                     u3667 0AD8                     u3587 0054  
                   u2971 04EA                     u3757 0A9B                     u3677 0AE0  
                   u3597 008E                     u2965 04E1                     u2990 04FB  
                   u3767 0AA1                     u3687 0AE8                     u2991 04FA  
                   u2895 0498                     u3777 0AA9                     u3697 0AFD  
                   u2985 04ED             __CFG_WRT$OFF 0000            __CFG_FCMEN$ON 0000  
                   abs@a 0073                     _dbuf 0120                     _atoi 0BF6  
                   _main 00A6                     _dtoa 0E90                     _prec 00CE  
                   _nout 00CA                     pad@i 0027                     pad@p 0025  
                   fsr0h 0005                     fsr1h 0007                     indf0 0000  
                   fsr0l 0004                     indf1 0001                     fsr1l 0006  
                   pad@w 0029                     btemp 007E            __CFG_BOREN$ON 0000  
                   start 0002          ___fldiv@new_exp 004C          __end_of_Lcd_Cmd 0AAF  
          __CFG_MCLRE$ON 0000               _Lcd_Chr_CP 0009                    ??_abs 0075  
                  ??_pad 007C           Lcd_Out2@buffer 0074            __CFG_PLLEN$ON 0000  
          ___fltol@sign1 005D          __end_of___aodiv 0E90                    ?_atoi 0076  
                  ?_main 0070                    ?_dtoa 0030          __end_of___aomod 0D8F  
        __end_of___fldiv 0596            __CFG_WDTE$OFF 0000          __end_of___flmul 07ED  
        __end_of___fltol 0A16             vfpfcnvrt@fmt 004E                    _TRISA 008C  
          __CFG_PWRTE$ON 0000                    _flags 00D0             main@numLamps 00C4  
                  _fputc 08F9                    _fputs 0856          __end_of_isdigit 178C  
                  atoi@n 0027                    pad@fp 002B                    atoi@s 0076  
                  _width 00CC                    _putch 0008                    dtoa@d 0030  
                  dtoa@i 004C                    dtoa@n 0044                    dtoa@p 003E  
                  dtoa@s 0042                    dtoa@w 0040          __end_of_isspace 1800  
                  status 0003                    wtemp0 007E          __end_of_sprintf 0856  
       __end_of_Lcd_Init 0B4A         __end_of_Lcd_Out2 08F9          __initialization 07ED  
           __end_of_atoi 0CA5             __end_of_main 023F             __end_of_dtoa 1000  
                 ??_atoi 0078                   ??_main 00A9                   ??_dtoa 0038  
                 ?_fputc 0070                   ?_fputs 0078                   _ADRESH 009C  
                 _ADRESL 009B                   _ANSELA 018C                   ?_putch 0070  
                 u205lld 0E7E                   u221lld 0ED9                ??_Lcd_Cmd 0070  
          vfpfcnvrt@done 005E                   u215lld 0D7D                   u207lld 0CCF  
                 u209lld 0CFA                   u196lld 0DB9                   u198lld 0DE4  
       __end_of___xxtofl 0BF6             vfprintf@cfmt 0069              ?_Lcd_Chr_CP 0070  
              ??___aodiv 0070                ??___aomod 0070                   ___wmul 17C0  
              ??___fldiv 0042           __CFG_STVREN$ON 0000                ??___flmul 0028  
              ??___fltol 0058                   pad@buf 0024                   dtoa@fp 003D  
                 _strlen 17A6                   fputc@c 0070                   fputs@c 0020  
                 fputs@i 0021                   fputs@s 0023                ??_isdigit 0072  
     __size_of__Umul8_16 0023                ??_isspace 0072                   putch@c 0070  
       __end_of_vfprintf 08B0                ??_sprintf 007D             ___xxtofl@arg 007A  
           ___xxtofl@exp 0079             ___xxtofl@val 0070  __end_of__initialization 07FD  
             ___fltol@f1 0054           __pcstackCOMMON 0070            __end_of_fputc 0948  
          __end_of_fputs 087F            __end_of_putch 0009                ?_Lcd_Init 0070  
              ?_Lcd_Out2 0073                  ??_fputc 0073                  ??_fputs 0079  
    __size_of_Lcd_Chr_CP 009D                  ??_putch 0070               __pbssBANK1 00CA  
             __pbssBANK2 0120          __CFG_VCAPEN$OFF 0000        __end_of__Umul8_16 0832  
             __pmaintext 00A6                  ?___wmul 0070                  ?_strlen 0070  
              ?___xxtofl 0070       __size_of_vfpfcnvrt 01A3               ??_Lcd_Init 0073  
             ??_Lcd_Out2 0075                  _Lcd_Cmd 0A16                  ___aodiv 0D8F  
                ___aomod 0CA5                  ___fldiv 03E2                  ___flmul 0596  
                ___fltol 09A1          __size_of___wmul 001F                ?_vfprintf 0063  
                __ptext1 0832                  __ptext2 087F                  __ptext3 023F  
                __ptext4 0E90                  __ptext5 0948                  __ptext6 17A6  
                __ptext7 0856                  __ptext8 08F9                  __ptext9 0008  
        __size_of_strlen 001A             __size_of_abs 001A             __size_of_pad 0059  
                _isdigit 1774               ??___xxtofl 0074                  _isspace 17DF  
                atoi@neg 0020                  main@adc 00C6                  _sprintf 0832  
                clrloop0 080A     end_of_initialization 07FD                  fputc@fp 0072  
                fputs@fp 0078        __end_of_vfpfcnvrt 03E2             ??_Lcd_Chr_CP 0070  
              Lcd_Out2@x 0073                Lcd_Out2@y 0077               ??_vfprintf 0066  
                strlen@a 0073                  strlen@s 0074                _PORTCbits 000E  
       __CFG_FOSC$INTOSC 0000            ___xxtofl@sign 0078                _TRISCbits 008E  
            ___fldiv@grs 004E              ___fldiv@rem 0047       __end_of_Lcd_Chr_CP 00A6  
            ___flmul@grs 002E              vfpfcnvrt@ap 004F              vfpfcnvrt@fp 0062  
            vfpfcnvrt@ll 0056           __end_of___wmul 17DF           __end_of_strlen 17C0  
    start_initialization 07ED              __end_of_abs 17A6              __end_of_pad 09A1  
      __size_of_Lcd_Init 009B        __size_of_Lcd_Out2 0049              vfprintf@fmt 0063  
               ??___wmul 0074                __Umul8_16 080F                 ??_strlen 0072  
              ___fldiv@a 003A                ___fldiv@b 003E                ___flmul@a 0024  
              ___flmul@b 0020                ___latbits 0003            __pcstackBANK0 0020  
          __pcstackBANK1 00A0         ___aodiv@dividend 0028        __size_of___xxtofl 00AC  
               ?_Lcd_Cmd 0070                 ?___aodiv 0020                 ?___aomod 0020  
               ?___fldiv 003A         ___aodiv@quotient 0073                 ?___flmul 0020  
               ?___fltol 0054               ?__Umul8_16 0070        __size_of_vfprintf 0031  
               ?_isdigit 0070                 ?_isspace 0070                 ?_sprintf 006B  
         __size_of_fputc 004F           __size_of_fputs 0029           __size_of_putch 0001  
         ___wmul@product 0074                clear_ram0 0809                _vfpfcnvrt 023F  
           Lcd_Init@data 0074               _ADCON0bits 009D               _ADCON1bits 009E  
      ___wmul@multiplier 0070             Lcd_Out2@data 0078                 _Lcd_Init 0AAF  
               _Lcd_Out2 08B0         __size_of_Lcd_Cmd 0099               vfprintf@ap 0065  
             vfprintf@fp 0068              ??__Umul8_16 0072         __size_of___aodiv 0101  
       __size_of___aomod 00EA         __size_of___fldiv 01B4         __size_of___flmul 0257  
       __size_of___fltol 0075               ?_vfpfcnvrt 004E          ___aodiv@divisor 0020  
        ___aodiv@counter 0071               sprintf@fmt 006B                 ___xxtofl 0B4A  
               _atoi$820 0026                 _atoi$821 0024                 _atoi$819 0022  
       __size_of_isdigit 0018           Lcd_Chr_CP@data 0072                 _dtoa$509 003B  
       __size_of_isspace 0021                 __ptext10 178C                 __ptext11 0CA5  
               __ptext20 080F                 __ptext12 0D8F                 __ptext21 03E2  
               __ptext13 0BF6                 __ptext22 08B0                 __ptext14 17DF  
               __ptext23 0009                 __ptext15 1774                 __ptext24 0AAF  
               __ptext16 17C0                 __ptext25 0A16                 __ptext17 0B4A  
               __ptext18 09A1                 __ptext19 0596         __size_of_sprintf 0024  
            Lcd_Cmd@data 0072            __size_of_atoi 00AF            __size_of_main 0199  
          __size_of_dtoa 0170                 _vfprintf 087F                 main@perc 00C8  
               main@volt 00C0              _isspace$837 0074         ___aomod@dividend 0028  
               isdigit@c 0070                sprintf@ap 00A2                 isspace@c 0070  
      __CFG_CLKOUTEN$OFF 0000               _OSCCONbits 0099          ___aomod@divisor 0020  
            ??_vfpfcnvrt 0050            _vfpfcnvrt$524 0060          ___aomod@counter 0071  
          __pstringtext1 1800            __pstringtext2 1810            __pstringtext3 0000  
 __Umul8_16@multiplicand 0070                 sprintf@f 00A4                 sprintf@s 00A3  
           ___aodiv@sign 0072     __Umul8_16@multiplier 0078             ___aomod@sign 0072  
      __Umul8_16@product 0074  
